ARM GAS  C:\Users\ncer\AppData\Local\Temp\cc2eApob.s 			page 1


   1              		.cpu cortex-m4
   2              		.eabi_attribute 27, 1
   3              		.eabi_attribute 28, 1
   4              		.eabi_attribute 20, 1
   5              		.eabi_attribute 21, 1
   6              		.eabi_attribute 23, 3
   7              		.eabi_attribute 24, 1
   8              		.eabi_attribute 25, 1
   9              		.eabi_attribute 26, 1
  10              		.eabi_attribute 30, 1
  11              		.eabi_attribute 34, 1
  12              		.eabi_attribute 18, 4
  13              		.file	"myfunc.c"
  14              		.text
  15              	.Ltext0:
  16              		.cfi_sections	.debug_frame
  17              		.section	.text.test_direction,"ax",%progbits
  18              		.align	1
  19              		.global	test_direction
  20              		.arch armv7e-m
  21              		.syntax unified
  22              		.thumb
  23              		.thumb_func
  24              		.fpu fpv4-sp-d16
  26              	test_direction:
  27              	.LVL0:
  28              	.LFB137:
  29              		.file 1 "Src/myfunc.c"
   1:Src/myfunc.c  **** #include "command.h"
   2:Src/myfunc.c  **** #include "uart_ext.h"
   3:Src/myfunc.c  **** #include "cmd_fun.h"
   4:Src/myfunc.c  **** 
   5:Src/myfunc.c  **** typedef struct{
   6:Src/myfunc.c  ****   char * var_name;
   7:Src/myfunc.c  ****   void * value_ptr;
   8:Src/myfunc.c  **** }Var_Edit_Struct;
   9:Src/myfunc.c  **** 
  10:Src/myfunc.c  **** Var_Edit_Struct Var_List[10]={
  11:Src/myfunc.c  ****   //{"first",&First_Time_Check}
  12:Src/myfunc.c  ****   0
  13:Src/myfunc.c  **** };
  14:Src/myfunc.c  **** 
  15:Src/myfunc.c  **** static void test(int arg_num,char **string_prams,float * arg){
  16:Src/myfunc.c  ****   int i;
  17:Src/myfunc.c  ****   uprintf("this is testkk\r\n");
  18:Src/myfunc.c  ****   uprintf("i get %d args\r\n",arg_num);
  19:Src/myfunc.c  ****   for(i=0;i<(arg_num&0xFF);++i){
  20:Src/myfunc.c  ****     uprintf("one is %f\r\n",arg[i]);
  21:Src/myfunc.c  ****   }
  22:Src/myfunc.c  ****   for(i=0;i<(arg_num>>8);++i){
  23:Src/myfunc.c  ****     uprintf("string_prams is %s\r\n",string_prams[i]);
  24:Src/myfunc.c  ****   }
  25:Src/myfunc.c  **** }
  26:Src/myfunc.c  **** 
  27:Src/myfunc.c  **** void set_val(int arg_num,char ** s,float * args){
  28:Src/myfunc.c  ****   void * edit_value;
  29:Src/myfunc.c  ****   if(arg_num!=0x0201){
ARM GAS  C:\Users\ncer\AppData\Local\Temp\cc2eApob.s 			page 2


  30:Src/myfunc.c  ****     uprintf("error arg_num!\r\n");
  31:Src/myfunc.c  ****     return ;
  32:Src/myfunc.c  ****   }
  33:Src/myfunc.c  **** 
  34:Src/myfunc.c  ****   for(int i=0;i<sizeof(Var_List)/sizeof(Var_Edit_Struct);++i){
  35:Src/myfunc.c  ****     if(compare_string(Var_List[i].var_name,s[0])){
  36:Src/myfunc.c  ****       edit_value=Var_List[i].value_ptr;
  37:Src/myfunc.c  ****       break;
  38:Src/myfunc.c  ****     }
  39:Src/myfunc.c  ****   }
  40:Src/myfunc.c  ****   
  41:Src/myfunc.c  ****   if(compare_string(s[1],"u8")){
  42:Src/myfunc.c  ****     *(uint8_t *)edit_value=(uint8_t)args[0];
  43:Src/myfunc.c  ****     uprintf("ok set %s = %d\r\n",s[0],*(uint8_t *)edit_value);  
  44:Src/myfunc.c  ****   }else if(compare_string(s[1],"int")){
  45:Src/myfunc.c  ****     *(int16_t *)edit_value=(int16_t)args[0];
  46:Src/myfunc.c  ****     uprintf("ok set %s = %d\r\n",s[0],*(int16_t *)edit_value);
  47:Src/myfunc.c  ****   }else if(compare_string(s[1],"f")){
  48:Src/myfunc.c  ****     *(float *)edit_value=args[0];
  49:Src/myfunc.c  ****     uprintf("ok set %s = %f\r\n",s[0],*(float *)edit_value);
  50:Src/myfunc.c  ****   }
  51:Src/myfunc.c  **** }
  52:Src/myfunc.c  **** 
  53:Src/myfunc.c  **** 
  54:Src/myfunc.c  **** 
  55:Src/myfunc.c  **** 
  56:Src/myfunc.c  **** /*
  57:Src/myfunc.c  **** 下面定义用户需要的函数
  58:Src/myfunc.c  **** 
  59:Src/myfunc.c  **** */
  60:Src/myfunc.c  **** #include "foc.h"
  61:Src/myfunc.c  **** void set_to_u4(int arg_num,char ** s,float * args){
  62:Src/myfunc.c  ****   uint8_t temp_t;
  63:Src/myfunc.c  ****   if(arg_num!=0x0001){
  64:Src/myfunc.c  ****     return ;
  65:Src/myfunc.c  ****   }
  66:Src/myfunc.c  ****   temp_t=(uint8_t)args[0];
  67:Src/myfunc.c  ****   Set_to_U4(temp_t);
  68:Src/myfunc.c  ****   HAL_Delay(5);
  69:Src/myfunc.c  ****   uprintf("OK set to us and keep %d ms\r\n",temp_t);
  70:Src/myfunc.c  **** }
  71:Src/myfunc.c  **** 
  72:Src/myfunc.c  **** void get_position(int arg_num,char **s,float *args){
  73:Src/myfunc.c  ****   uprintf("Position:%f\r\n",Position_Degree);
  74:Src/myfunc.c  ****   return ;
  75:Src/myfunc.c  **** }
  76:Src/myfunc.c  **** 
  77:Src/myfunc.c  **** extern enum{
  78:Src/myfunc.c  ****     WAIT,
  79:Src/myfunc.c  ****     SENSOR_FOC,
  80:Src/myfunc.c  ****     SENSOR_LESS_FOC,
  81:Src/myfunc.c  ****     VF_OPENLOOP,
  82:Src/myfunc.c  ****     MEASURE_R,
  83:Src/myfunc.c  ****     MEASURE_L,
  84:Src/myfunc.c  ****     TEST_DIRECTION,
  85:Src/myfunc.c  ****     TEST_POSITION_OFFSET
  86:Src/myfunc.c  **** }Board_Mode;
ARM GAS  C:\Users\ncer\AppData\Local\Temp\cc2eApob.s 			page 3


  87:Src/myfunc.c  **** void test_direction(int arg_num,char **s,float *args){
  30              		.loc 1 87 54 view -0
  31              		.cfi_startproc
  32              		@ args = 0, pretend = 0, frame = 0
  33              		@ frame_needed = 0, uses_anonymous_args = 0
  34              		@ link register save eliminated.
  88:Src/myfunc.c  ****   Board_Mode=TEST_DIRECTION;
  35              		.loc 1 88 3 view .LVU1
  36              		.loc 1 88 13 is_stmt 0 view .LVU2
  37 0000 014B     		ldr	r3, .L2
  38 0002 0622     		movs	r2, #6
  39              	.LVL1:
  40              		.loc 1 88 13 view .LVU3
  41 0004 1A70     		strb	r2, [r3]
  89:Src/myfunc.c  ****   return ;
  42              		.loc 1 89 3 is_stmt 1 view .LVU4
  90:Src/myfunc.c  **** }
  43              		.loc 1 90 1 is_stmt 0 view .LVU5
  44 0006 7047     		bx	lr
  45              	.L3:
  46              		.align	2
  47              	.L2:
  48 0008 00000000 		.word	Board_Mode
  49              		.cfi_endproc
  50              	.LFE137:
  52              		.global	__aeabi_f2d
  53              		.section	.rodata.get_position.str1.4,"aMS",%progbits,1
  54              		.align	2
  55              	.LC0:
  56 0000 506F7369 		.ascii	"Position:%f\015\012\000"
  56      74696F6E 
  56      3A25660D 
  56      0A00
  57              		.section	.text.get_position,"ax",%progbits
  58              		.align	1
  59              		.global	get_position
  60              		.syntax unified
  61              		.thumb
  62              		.thumb_func
  63              		.fpu fpv4-sp-d16
  65              	get_position:
  66              	.LVL2:
  67              	.LFB136:
  72:Src/myfunc.c  ****   uprintf("Position:%f\r\n",Position_Degree);
  68              		.loc 1 72 52 is_stmt 1 view -0
  69              		.cfi_startproc
  70              		@ args = 0, pretend = 0, frame = 0
  71              		@ frame_needed = 0, uses_anonymous_args = 0
  72:Src/myfunc.c  ****   uprintf("Position:%f\r\n",Position_Degree);
  72              		.loc 1 72 52 is_stmt 0 view .LVU7
  73 0000 08B5     		push	{r3, lr}
  74              	.LCFI0:
  75              		.cfi_def_cfa_offset 8
  76              		.cfi_offset 3, -8
  77              		.cfi_offset 14, -4
  73:Src/myfunc.c  ****   return ;
  78              		.loc 1 73 3 is_stmt 1 view .LVU8
ARM GAS  C:\Users\ncer\AppData\Local\Temp\cc2eApob.s 			page 4


  79 0002 054B     		ldr	r3, .L6
  80 0004 1868     		ldr	r0, [r3]	@ float
  81              	.LVL3:
  73:Src/myfunc.c  ****   return ;
  82              		.loc 1 73 3 is_stmt 0 view .LVU9
  83 0006 FFF7FEFF 		bl	__aeabi_f2d
  84              	.LVL4:
  73:Src/myfunc.c  ****   return ;
  85              		.loc 1 73 3 view .LVU10
  86 000a 0246     		mov	r2, r0
  87 000c 0B46     		mov	r3, r1
  88 000e 0348     		ldr	r0, .L6+4
  89 0010 FFF7FEFF 		bl	uprintf
  90              	.LVL5:
  74:Src/myfunc.c  **** }
  91              		.loc 1 74 3 is_stmt 1 view .LVU11
  75:Src/myfunc.c  **** 
  92              		.loc 1 75 1 is_stmt 0 view .LVU12
  93 0014 08BD     		pop	{r3, pc}
  94              	.L7:
  95 0016 00BF     		.align	2
  96              	.L6:
  97 0018 00000000 		.word	Position_Degree
  98 001c 00000000 		.word	.LC0
  99              		.cfi_endproc
 100              	.LFE136:
 102              		.section	.rodata.test.str1.4,"aMS",%progbits,1
 103              		.align	2
 104              	.LC1:
 105 0000 74686973 		.ascii	"this is testkk\015\012\000"
 105      20697320 
 105      74657374 
 105      6B6B0D0A 
 105      00
 106 0011 000000   		.align	2
 107              	.LC2:
 108 0014 69206765 		.ascii	"i get %d args\015\012\000"
 108      74202564 
 108      20617267 
 108      730D0A00 
 109              		.align	2
 110              	.LC3:
 111 0024 6F6E6520 		.ascii	"one is %f\015\012\000"
 111      69732025 
 111      660D0A00 
 112              		.align	2
 113              	.LC4:
 114 0030 73747269 		.ascii	"string_prams is %s\015\012\000"
 114      6E675F70 
 114      72616D73 
 114      20697320 
 114      25730D0A 
 115              		.section	.text.test,"ax",%progbits
 116              		.align	1
 117              		.syntax unified
 118              		.thumb
 119              		.thumb_func
ARM GAS  C:\Users\ncer\AppData\Local\Temp\cc2eApob.s 			page 5


 120              		.fpu fpv4-sp-d16
 122              	test:
 123              	.LVL6:
 124              	.LFB133:
  15:Src/myfunc.c  ****   int i;
 125              		.loc 1 15 62 is_stmt 1 view -0
 126              		.cfi_startproc
 127              		@ args = 0, pretend = 0, frame = 0
 128              		@ frame_needed = 0, uses_anonymous_args = 0
  15:Src/myfunc.c  ****   int i;
 129              		.loc 1 15 62 is_stmt 0 view .LVU14
 130 0000 F8B5     		push	{r3, r4, r5, r6, r7, lr}
 131              	.LCFI1:
 132              		.cfi_def_cfa_offset 24
 133              		.cfi_offset 3, -24
 134              		.cfi_offset 4, -20
 135              		.cfi_offset 5, -16
 136              		.cfi_offset 6, -12
 137              		.cfi_offset 7, -8
 138              		.cfi_offset 14, -4
 139 0002 0546     		mov	r5, r0
 140 0004 0E46     		mov	r6, r1
 141 0006 1746     		mov	r7, r2
  16:Src/myfunc.c  ****   uprintf("this is testkk\r\n");
 142              		.loc 1 16 3 is_stmt 1 view .LVU15
  17:Src/myfunc.c  ****   uprintf("i get %d args\r\n",arg_num);
 143              		.loc 1 17 3 view .LVU16
 144 0008 1148     		ldr	r0, .L15
 145              	.LVL7:
  17:Src/myfunc.c  ****   uprintf("i get %d args\r\n",arg_num);
 146              		.loc 1 17 3 is_stmt 0 view .LVU17
 147 000a FFF7FEFF 		bl	uprintf
 148              	.LVL8:
  18:Src/myfunc.c  ****   for(i=0;i<(arg_num&0xFF);++i){
 149              		.loc 1 18 3 is_stmt 1 view .LVU18
 150 000e 2946     		mov	r1, r5
 151 0010 1048     		ldr	r0, .L15+4
 152 0012 FFF7FEFF 		bl	uprintf
 153              	.LVL9:
  19:Src/myfunc.c  ****     uprintf("one is %f\r\n",arg[i]);
 154              		.loc 1 19 3 view .LVU19
  19:Src/myfunc.c  ****     uprintf("one is %f\r\n",arg[i]);
 155              		.loc 1 19 8 is_stmt 0 view .LVU20
 156 0016 0024     		movs	r4, #0
 157              	.LVL10:
 158              	.L9:
  19:Src/myfunc.c  ****     uprintf("one is %f\r\n",arg[i]);
 159              		.loc 1 19 11 is_stmt 1 discriminator 1 view .LVU21
  19:Src/myfunc.c  ****     uprintf("one is %f\r\n",arg[i]);
 160              		.loc 1 19 21 is_stmt 0 discriminator 1 view .LVU22
 161 0018 EBB2     		uxtb	r3, r5
  19:Src/myfunc.c  ****     uprintf("one is %f\r\n",arg[i]);
 162              		.loc 1 19 3 discriminator 1 view .LVU23
 163 001a A342     		cmp	r3, r4
 164 001c 0BDD     		ble	.L14
  20:Src/myfunc.c  ****   }
 165              		.loc 1 20 5 is_stmt 1 discriminator 3 view .LVU24
ARM GAS  C:\Users\ncer\AppData\Local\Temp\cc2eApob.s 			page 6


  20:Src/myfunc.c  ****   }
 166              		.loc 1 20 32 is_stmt 0 discriminator 3 view .LVU25
 167 001e 07EB8403 		add	r3, r7, r4, lsl #2
  20:Src/myfunc.c  ****   }
 168              		.loc 1 20 5 discriminator 3 view .LVU26
 169 0022 1868     		ldr	r0, [r3]	@ float
 170 0024 FFF7FEFF 		bl	__aeabi_f2d
 171              	.LVL11:
 172 0028 0246     		mov	r2, r0
 173 002a 0B46     		mov	r3, r1
 174 002c 0A48     		ldr	r0, .L15+8
 175 002e FFF7FEFF 		bl	uprintf
 176              	.LVL12:
  19:Src/myfunc.c  ****     uprintf("one is %f\r\n",arg[i]);
 177              		.loc 1 19 28 is_stmt 1 discriminator 3 view .LVU27
 178 0032 0134     		adds	r4, r4, #1
 179              	.LVL13:
  19:Src/myfunc.c  ****     uprintf("one is %f\r\n",arg[i]);
 180              		.loc 1 19 28 is_stmt 0 discriminator 3 view .LVU28
 181 0034 F0E7     		b	.L9
 182              	.L14:
  22:Src/myfunc.c  ****     uprintf("string_prams is %s\r\n",string_prams[i]);
 183              		.loc 1 22 8 view .LVU29
 184 0036 0024     		movs	r4, #0
 185              	.LVL14:
  22:Src/myfunc.c  ****     uprintf("string_prams is %s\r\n",string_prams[i]);
 186              		.loc 1 22 8 view .LVU30
 187 0038 05E0     		b	.L11
 188              	.LVL15:
 189              	.L12:
  23:Src/myfunc.c  ****   }
 190              		.loc 1 23 5 is_stmt 1 discriminator 3 view .LVU31
 191 003a 56F82410 		ldr	r1, [r6, r4, lsl #2]
 192 003e 0748     		ldr	r0, .L15+12
 193 0040 FFF7FEFF 		bl	uprintf
 194              	.LVL16:
  22:Src/myfunc.c  ****     uprintf("string_prams is %s\r\n",string_prams[i]);
 195              		.loc 1 22 26 discriminator 3 view .LVU32
 196 0044 0134     		adds	r4, r4, #1
 197              	.LVL17:
 198              	.L11:
  22:Src/myfunc.c  ****     uprintf("string_prams is %s\r\n",string_prams[i]);
 199              		.loc 1 22 11 discriminator 1 view .LVU33
  22:Src/myfunc.c  ****     uprintf("string_prams is %s\r\n",string_prams[i]);
 200              		.loc 1 22 3 is_stmt 0 discriminator 1 view .LVU34
 201 0046 B4EB252F 		cmp	r4, r5, asr #8
 202 004a F6DB     		blt	.L12
  25:Src/myfunc.c  **** 
 203              		.loc 1 25 1 view .LVU35
 204 004c F8BD     		pop	{r3, r4, r5, r6, r7, pc}
 205              	.LVL18:
 206              	.L16:
  25:Src/myfunc.c  **** 
 207              		.loc 1 25 1 view .LVU36
 208 004e 00BF     		.align	2
 209              	.L15:
 210 0050 00000000 		.word	.LC1
ARM GAS  C:\Users\ncer\AppData\Local\Temp\cc2eApob.s 			page 7


 211 0054 14000000 		.word	.LC2
 212 0058 24000000 		.word	.LC3
 213 005c 30000000 		.word	.LC4
 214              		.cfi_endproc
 215              	.LFE133:
 217              		.section	.rodata.set_to_u4.str1.4,"aMS",%progbits,1
 218              		.align	2
 219              	.LC5:
 220 0000 4F4B2073 		.ascii	"OK set to us and keep %d ms\015\012\000"
 220      65742074 
 220      6F207573 
 220      20616E64 
 220      206B6565 
 221              		.section	.text.set_to_u4,"ax",%progbits
 222              		.align	1
 223              		.global	set_to_u4
 224              		.syntax unified
 225              		.thumb
 226              		.thumb_func
 227              		.fpu fpv4-sp-d16
 229              	set_to_u4:
 230              	.LVL19:
 231              	.LFB135:
  61:Src/myfunc.c  ****   uint8_t temp_t;
 232              		.loc 1 61 51 is_stmt 1 view -0
 233              		.cfi_startproc
 234              		@ args = 0, pretend = 0, frame = 8
 235              		@ frame_needed = 0, uses_anonymous_args = 0
  62:Src/myfunc.c  ****   if(arg_num!=0x0001){
 236              		.loc 1 62 3 view .LVU38
  63:Src/myfunc.c  ****     return ;
 237              		.loc 1 63 3 view .LVU39
  63:Src/myfunc.c  ****     return ;
 238              		.loc 1 63 5 is_stmt 0 view .LVU40
 239 0000 0128     		cmp	r0, #1
 240 0002 00D0     		beq	.L23
 241 0004 7047     		bx	lr
 242              	.L23:
  61:Src/myfunc.c  ****   uint8_t temp_t;
 243              		.loc 1 61 51 view .LVU41
 244 0006 10B5     		push	{r4, lr}
 245              	.LCFI2:
 246              		.cfi_def_cfa_offset 8
 247              		.cfi_offset 4, -8
 248              		.cfi_offset 14, -4
 249 0008 82B0     		sub	sp, sp, #8
 250              	.LCFI3:
 251              		.cfi_def_cfa_offset 16
  66:Src/myfunc.c  ****   Set_to_U4(temp_t);
 252              		.loc 1 66 3 is_stmt 1 view .LVU42
  66:Src/myfunc.c  ****   Set_to_U4(temp_t);
 253              		.loc 1 66 23 is_stmt 0 view .LVU43
 254 000a D2ED007A 		vldr.32	s15, [r2]
  66:Src/myfunc.c  ****   Set_to_U4(temp_t);
 255              		.loc 1 66 9 view .LVU44
 256 000e FCEEE77A 		vcvt.u32.f32	s15, s15
 257 0012 CDED017A 		vstr.32	s15, [sp, #4]	@ int
ARM GAS  C:\Users\ncer\AppData\Local\Temp\cc2eApob.s 			page 8


 258 0016 9DF80440 		ldrb	r4, [sp, #4]	@ zero_extendqisi2
 259              	.LVL20:
  67:Src/myfunc.c  ****   HAL_Delay(5);
 260              		.loc 1 67 3 is_stmt 1 view .LVU45
 261 001a 2046     		mov	r0, r4
 262              	.LVL21:
  67:Src/myfunc.c  ****   HAL_Delay(5);
 263              		.loc 1 67 3 is_stmt 0 view .LVU46
 264 001c FFF7FEFF 		bl	Set_to_U4
 265              	.LVL22:
  68:Src/myfunc.c  ****   uprintf("OK set to us and keep %d ms\r\n",temp_t);
 266              		.loc 1 68 3 is_stmt 1 view .LVU47
 267 0020 0520     		movs	r0, #5
 268 0022 FFF7FEFF 		bl	HAL_Delay
 269              	.LVL23:
  69:Src/myfunc.c  **** }
 270              		.loc 1 69 3 view .LVU48
 271 0026 2146     		mov	r1, r4
 272 0028 0248     		ldr	r0, .L24
 273 002a FFF7FEFF 		bl	uprintf
 274              	.LVL24:
  70:Src/myfunc.c  **** 
 275              		.loc 1 70 1 is_stmt 0 view .LVU49
 276 002e 02B0     		add	sp, sp, #8
 277              	.LCFI4:
 278              		.cfi_def_cfa_offset 8
 279              		@ sp needed
 280 0030 10BD     		pop	{r4, pc}
 281              	.LVL25:
 282              	.L25:
  70:Src/myfunc.c  **** 
 283              		.loc 1 70 1 view .LVU50
 284 0032 00BF     		.align	2
 285              	.L24:
 286 0034 00000000 		.word	.LC5
 287              		.cfi_endproc
 288              	.LFE135:
 290              		.section	.rodata.set_val.str1.4,"aMS",%progbits,1
 291              		.align	2
 292              	.LC6:
 293 0000 6572726F 		.ascii	"error arg_num!\015\012\000"
 293      72206172 
 293      675F6E75 
 293      6D210D0A 
 293      00
 294 0011 000000   		.align	2
 295              	.LC7:
 296 0014 753800   		.ascii	"u8\000"
 297 0017 00       		.align	2
 298              	.LC8:
 299 0018 6F6B2073 		.ascii	"ok set %s = %d\015\012\000"
 299      65742025 
 299      73203D20 
 299      25640D0A 
 299      00
 300 0029 000000   		.align	2
 301              	.LC9:
ARM GAS  C:\Users\ncer\AppData\Local\Temp\cc2eApob.s 			page 9


 302 002c 696E7400 		.ascii	"int\000"
 303              		.align	2
 304              	.LC10:
 305 0030 6600     		.ascii	"f\000"
 306 0032 0000     		.align	2
 307              	.LC11:
 308 0034 6F6B2073 		.ascii	"ok set %s = %f\015\012\000"
 308      65742025 
 308      73203D20 
 308      25660D0A 
 308      00
 309              		.section	.text.set_val,"ax",%progbits
 310              		.align	1
 311              		.global	set_val
 312              		.syntax unified
 313              		.thumb
 314              		.thumb_func
 315              		.fpu fpv4-sp-d16
 317              	set_val:
 318              	.LVL26:
 319              	.LFB134:
  27:Src/myfunc.c  ****   void * edit_value;
 320              		.loc 1 27 49 is_stmt 1 view -0
 321              		.cfi_startproc
 322              		@ args = 0, pretend = 0, frame = 8
 323              		@ frame_needed = 0, uses_anonymous_args = 0
  27:Src/myfunc.c  ****   void * edit_value;
 324              		.loc 1 27 49 is_stmt 0 view .LVU52
 325 0000 F0B5     		push	{r4, r5, r6, r7, lr}
 326              	.LCFI5:
 327              		.cfi_def_cfa_offset 20
 328              		.cfi_offset 4, -20
 329              		.cfi_offset 5, -16
 330              		.cfi_offset 6, -12
 331              		.cfi_offset 7, -8
 332              		.cfi_offset 14, -4
 333 0002 83B0     		sub	sp, sp, #12
 334              	.LCFI6:
 335              		.cfi_def_cfa_offset 32
  28:Src/myfunc.c  ****   if(arg_num!=0x0201){
 336              		.loc 1 28 3 is_stmt 1 view .LVU53
  29:Src/myfunc.c  ****     uprintf("error arg_num!\r\n");
 337              		.loc 1 29 3 view .LVU54
  29:Src/myfunc.c  ****     uprintf("error arg_num!\r\n");
 338              		.loc 1 29 5 is_stmt 0 view .LVU55
 339 0004 40F20123 		movw	r3, #513
 340 0008 9842     		cmp	r0, r3
 341 000a 0DD1     		bne	.L36
 342 000c 0D46     		mov	r5, r1
 343 000e 1746     		mov	r7, r2
 344              	.LBB2:
  34:Src/myfunc.c  ****     if(compare_string(Var_List[i].var_name,s[0])){
 345              		.loc 1 34 11 view .LVU56
 346 0010 0024     		movs	r4, #0
 347              	.LVL27:
 348              	.L27:
  34:Src/myfunc.c  ****     if(compare_string(Var_List[i].var_name,s[0])){
ARM GAS  C:\Users\ncer\AppData\Local\Temp\cc2eApob.s 			page 10


 349              		.loc 1 34 15 is_stmt 1 discriminator 1 view .LVU57
  34:Src/myfunc.c  ****     if(compare_string(Var_List[i].var_name,s[0])){
 350              		.loc 1 34 3 is_stmt 0 discriminator 1 view .LVU58
 351 0012 092C     		cmp	r4, #9
 352 0014 10D8     		bhi	.L30
  35:Src/myfunc.c  ****       edit_value=Var_List[i].value_ptr;
 353              		.loc 1 35 5 is_stmt 1 view .LVU59
  35:Src/myfunc.c  ****       edit_value=Var_List[i].value_ptr;
 354              		.loc 1 35 8 is_stmt 0 view .LVU60
 355 0016 2968     		ldr	r1, [r5]
 356 0018 234B     		ldr	r3, .L38
 357 001a 53F83400 		ldr	r0, [r3, r4, lsl #3]
 358 001e FFF7FEFF 		bl	compare_string
 359              	.LVL28:
  35:Src/myfunc.c  ****       edit_value=Var_List[i].value_ptr;
 360              		.loc 1 35 7 view .LVU61
 361 0022 28B9     		cbnz	r0, .L37
  34:Src/myfunc.c  ****     if(compare_string(Var_List[i].var_name,s[0])){
 362              		.loc 1 34 58 is_stmt 1 discriminator 2 view .LVU62
 363 0024 0134     		adds	r4, r4, #1
 364              	.LVL29:
  34:Src/myfunc.c  ****     if(compare_string(Var_List[i].var_name,s[0])){
 365              		.loc 1 34 58 is_stmt 0 discriminator 2 view .LVU63
 366 0026 F4E7     		b	.L27
 367              	.LVL30:
 368              	.L36:
  34:Src/myfunc.c  ****     if(compare_string(Var_List[i].var_name,s[0])){
 369              		.loc 1 34 58 discriminator 2 view .LVU64
 370              	.LBE2:
  30:Src/myfunc.c  ****     return ;
 371              		.loc 1 30 5 is_stmt 1 view .LVU65
 372 0028 2048     		ldr	r0, .L38+4
 373              	.LVL31:
  30:Src/myfunc.c  ****     return ;
 374              		.loc 1 30 5 is_stmt 0 view .LVU66
 375 002a FFF7FEFF 		bl	uprintf
 376              	.LVL32:
  31:Src/myfunc.c  ****   }
 377              		.loc 1 31 5 is_stmt 1 view .LVU67
 378 002e 15E0     		b	.L26
 379              	.LVL33:
 380              	.L37:
 381              	.LBB3:
  36:Src/myfunc.c  ****       break;
 382              		.loc 1 36 7 view .LVU68
  36:Src/myfunc.c  ****       break;
 383              		.loc 1 36 17 is_stmt 0 view .LVU69
 384 0030 1D4B     		ldr	r3, .L38
 385 0032 03EBC404 		add	r4, r3, r4, lsl #3
 386              	.LVL34:
  36:Src/myfunc.c  ****       break;
 387              		.loc 1 36 17 view .LVU70
 388 0036 6668     		ldr	r6, [r4, #4]
 389              	.LVL35:
  37:Src/myfunc.c  ****     }
 390              		.loc 1 37 7 is_stmt 1 view .LVU71
 391              	.L30:
ARM GAS  C:\Users\ncer\AppData\Local\Temp\cc2eApob.s 			page 11


  37:Src/myfunc.c  ****     }
 392              		.loc 1 37 7 is_stmt 0 view .LVU72
 393              	.LBE3:
  41:Src/myfunc.c  ****     *(uint8_t *)edit_value=(uint8_t)args[0];
 394              		.loc 1 41 3 is_stmt 1 view .LVU73
  41:Src/myfunc.c  ****     *(uint8_t *)edit_value=(uint8_t)args[0];
 395              		.loc 1 41 6 is_stmt 0 view .LVU74
 396 0038 1D49     		ldr	r1, .L38+8
 397 003a 6868     		ldr	r0, [r5, #4]
 398 003c FFF7FEFF 		bl	compare_string
 399              	.LVL36:
  41:Src/myfunc.c  ****     *(uint8_t *)edit_value=(uint8_t)args[0];
 400              		.loc 1 41 5 view .LVU75
 401 0040 70B1     		cbz	r0, .L32
  42:Src/myfunc.c  ****     uprintf("ok set %s = %d\r\n",s[0],*(uint8_t *)edit_value);  
 402              		.loc 1 42 5 is_stmt 1 view .LVU76
  42:Src/myfunc.c  ****     uprintf("ok set %s = %d\r\n",s[0],*(uint8_t *)edit_value);  
 403              		.loc 1 42 41 is_stmt 0 view .LVU77
 404 0042 D7ED007A 		vldr.32	s15, [r7]
  42:Src/myfunc.c  ****     uprintf("ok set %s = %d\r\n",s[0],*(uint8_t *)edit_value);  
 405              		.loc 1 42 28 view .LVU78
 406 0046 FCEEE77A 		vcvt.u32.f32	s15, s15
 407 004a CDED017A 		vstr.32	s15, [sp, #4]	@ int
 408 004e 9DF80420 		ldrb	r2, [sp, #4]	@ zero_extendqisi2
  42:Src/myfunc.c  ****     uprintf("ok set %s = %d\r\n",s[0],*(uint8_t *)edit_value);  
 409              		.loc 1 42 27 view .LVU79
 410 0052 3270     		strb	r2, [r6]
  43:Src/myfunc.c  ****   }else if(compare_string(s[1],"int")){
 411              		.loc 1 43 5 is_stmt 1 view .LVU80
 412 0054 2968     		ldr	r1, [r5]
 413 0056 1748     		ldr	r0, .L38+12
 414 0058 FFF7FEFF 		bl	uprintf
 415              	.LVL37:
 416              	.L26:
  51:Src/myfunc.c  **** 
 417              		.loc 1 51 1 is_stmt 0 view .LVU81
 418 005c 03B0     		add	sp, sp, #12
 419              	.LCFI7:
 420              		.cfi_remember_state
 421              		.cfi_def_cfa_offset 20
 422              		@ sp needed
 423 005e F0BD     		pop	{r4, r5, r6, r7, pc}
 424              	.LVL38:
 425              	.L32:
 426              	.LCFI8:
 427              		.cfi_restore_state
  44:Src/myfunc.c  ****     *(int16_t *)edit_value=(int16_t)args[0];
 428              		.loc 1 44 9 is_stmt 1 view .LVU82
  44:Src/myfunc.c  ****     *(int16_t *)edit_value=(int16_t)args[0];
 429              		.loc 1 44 12 is_stmt 0 view .LVU83
 430 0060 1549     		ldr	r1, .L38+16
 431 0062 6868     		ldr	r0, [r5, #4]
 432 0064 FFF7FEFF 		bl	compare_string
 433              	.LVL39:
  44:Src/myfunc.c  ****     *(int16_t *)edit_value=(int16_t)args[0];
 434              		.loc 1 44 11 view .LVU84
 435 0068 60B1     		cbz	r0, .L33
ARM GAS  C:\Users\ncer\AppData\Local\Temp\cc2eApob.s 			page 12


  45:Src/myfunc.c  ****     uprintf("ok set %s = %d\r\n",s[0],*(int16_t *)edit_value);
 436              		.loc 1 45 5 is_stmt 1 view .LVU85
  45:Src/myfunc.c  ****     uprintf("ok set %s = %d\r\n",s[0],*(int16_t *)edit_value);
 437              		.loc 1 45 41 is_stmt 0 view .LVU86
 438 006a D7ED007A 		vldr.32	s15, [r7]
  45:Src/myfunc.c  ****     uprintf("ok set %s = %d\r\n",s[0],*(int16_t *)edit_value);
 439              		.loc 1 45 28 view .LVU87
 440 006e FDEEE77A 		vcvt.s32.f32	s15, s15
 441 0072 17EE903A 		vmov	r3, s15	@ int
 442 0076 1AB2     		sxth	r2, r3
  45:Src/myfunc.c  ****     uprintf("ok set %s = %d\r\n",s[0],*(int16_t *)edit_value);
 443              		.loc 1 45 27 view .LVU88
 444 0078 3280     		strh	r2, [r6]	@ movhi
  46:Src/myfunc.c  ****   }else if(compare_string(s[1],"f")){
 445              		.loc 1 46 5 is_stmt 1 view .LVU89
 446 007a 2968     		ldr	r1, [r5]
 447 007c 0D48     		ldr	r0, .L38+12
 448 007e FFF7FEFF 		bl	uprintf
 449              	.LVL40:
 450 0082 EBE7     		b	.L26
 451              	.L33:
  47:Src/myfunc.c  ****     *(float *)edit_value=args[0];
 452              		.loc 1 47 9 view .LVU90
  47:Src/myfunc.c  ****     *(float *)edit_value=args[0];
 453              		.loc 1 47 12 is_stmt 0 view .LVU91
 454 0084 0D49     		ldr	r1, .L38+20
 455 0086 6868     		ldr	r0, [r5, #4]
 456 0088 FFF7FEFF 		bl	compare_string
 457              	.LVL41:
  47:Src/myfunc.c  ****     *(float *)edit_value=args[0];
 458              		.loc 1 47 11 view .LVU92
 459 008c 0028     		cmp	r0, #0
 460 008e E5D0     		beq	.L26
  48:Src/myfunc.c  ****     uprintf("ok set %s = %f\r\n",s[0],*(float *)edit_value);
 461              		.loc 1 48 5 is_stmt 1 view .LVU93
  48:Src/myfunc.c  ****     uprintf("ok set %s = %f\r\n",s[0],*(float *)edit_value);
 462              		.loc 1 48 30 is_stmt 0 view .LVU94
 463 0090 3868     		ldr	r0, [r7]	@ float
  48:Src/myfunc.c  ****     uprintf("ok set %s = %f\r\n",s[0],*(float *)edit_value);
 464              		.loc 1 48 25 view .LVU95
 465 0092 3060     		str	r0, [r6]	@ float
  49:Src/myfunc.c  ****   }
 466              		.loc 1 49 5 is_stmt 1 view .LVU96
 467 0094 FFF7FEFF 		bl	__aeabi_f2d
 468              	.LVL42:
 469 0098 0246     		mov	r2, r0
 470 009a 0B46     		mov	r3, r1
 471 009c 2968     		ldr	r1, [r5]
 472 009e 0848     		ldr	r0, .L38+24
 473 00a0 FFF7FEFF 		bl	uprintf
 474              	.LVL43:
 475 00a4 DAE7     		b	.L26
 476              	.L39:
 477 00a6 00BF     		.align	2
 478              	.L38:
 479 00a8 00000000 		.word	.LANCHOR0
 480 00ac 00000000 		.word	.LC6
ARM GAS  C:\Users\ncer\AppData\Local\Temp\cc2eApob.s 			page 13


 481 00b0 14000000 		.word	.LC7
 482 00b4 18000000 		.word	.LC8
 483 00b8 2C000000 		.word	.LC9
 484 00bc 30000000 		.word	.LC10
 485 00c0 34000000 		.word	.LC11
 486              		.cfi_endproc
 487              	.LFE134:
 489              		.section	.rodata.command_init.str1.4,"aMS",%progbits,1
 490              		.align	2
 491              	.LC12:
 492 0000 74657374 		.ascii	"test\000"
 492      00
 493 0005 000000   		.align	2
 494              	.LC13:
 495 0008 7365745F 		.ascii	"set_u4\000"
 495      753400
 496 000f 00       		.align	2
 497              	.LC14:
 498 0010 6765745F 		.ascii	"get_p\000"
 498      7000
 499 0016 0000     		.align	2
 500              	.LC15:
 501 0018 74657374 		.ascii	"test_direction\000"
 501      5F646972 
 501      65637469 
 501      6F6E00
 502              		.section	.text.command_init,"ax",%progbits
 503              		.align	1
 504              		.global	command_init
 505              		.syntax unified
 506              		.thumb
 507              		.thumb_func
 508              		.fpu fpv4-sp-d16
 510              	command_init:
 511              	.LFB138:
  91:Src/myfunc.c  **** 
  92:Src/myfunc.c  **** /*
  93:Src/myfunc.c  **** 将要增加的命令与函数写在这里
  94:Src/myfunc.c  **** */
  95:Src/myfunc.c  **** void command_init(void){
 512              		.loc 1 95 24 view -0
 513              		.cfi_startproc
 514              		@ args = 0, pretend = 0, frame = 0
 515              		@ frame_needed = 0, uses_anonymous_args = 0
 516 0000 08B5     		push	{r3, lr}
 517              	.LCFI9:
 518              		.cfi_def_cfa_offset 8
 519              		.cfi_offset 3, -8
 520              		.cfi_offset 14, -4
  96:Src/myfunc.c  ****   add_cmd("test",test);  
 521              		.loc 1 96 3 view .LVU98
 522 0002 0849     		ldr	r1, .L42
 523 0004 0848     		ldr	r0, .L42+4
 524 0006 FFF7FEFF 		bl	add_cmd
 525              	.LVL44:
  97:Src/myfunc.c  ****   add_cmd("set_u4",set_to_u4);
 526              		.loc 1 97 3 view .LVU99
ARM GAS  C:\Users\ncer\AppData\Local\Temp\cc2eApob.s 			page 14


 527 000a 0849     		ldr	r1, .L42+8
 528 000c 0848     		ldr	r0, .L42+12
 529 000e FFF7FEFF 		bl	add_cmd
 530              	.LVL45:
  98:Src/myfunc.c  ****   add_cmd("get_p",get_position);
 531              		.loc 1 98 3 view .LVU100
 532 0012 0849     		ldr	r1, .L42+16
 533 0014 0848     		ldr	r0, .L42+20
 534 0016 FFF7FEFF 		bl	add_cmd
 535              	.LVL46:
  99:Src/myfunc.c  ****   add_cmd("test_direction",test_direction);
 536              		.loc 1 99 3 view .LVU101
 537 001a 0849     		ldr	r1, .L42+24
 538 001c 0848     		ldr	r0, .L42+28
 539 001e FFF7FEFF 		bl	add_cmd
 540              	.LVL47:
 100:Src/myfunc.c  **** }
 541              		.loc 1 100 1 is_stmt 0 view .LVU102
 542 0022 08BD     		pop	{r3, pc}
 543              	.L43:
 544              		.align	2
 545              	.L42:
 546 0024 00000000 		.word	test
 547 0028 00000000 		.word	.LC12
 548 002c 00000000 		.word	set_to_u4
 549 0030 08000000 		.word	.LC13
 550 0034 00000000 		.word	get_position
 551 0038 10000000 		.word	.LC14
 552 003c 00000000 		.word	test_direction
 553 0040 18000000 		.word	.LC15
 554              		.cfi_endproc
 555              	.LFE138:
 557              		.global	Var_List
 558              		.section	.bss.Var_List,"aw",%nobits
 559              		.align	2
 560              		.set	.LANCHOR0,. + 0
 563              	Var_List:
 564 0000 00000000 		.space	80
 564      00000000 
 564      00000000 
 564      00000000 
 564      00000000 
 565              		.text
 566              	.Letext0:
 567              		.file 2 "c:\\arm_gcc\\arm-none-eabi\\include\\machine\\_default_types.h"
 568              		.file 3 "c:\\arm_gcc\\arm-none-eabi\\include\\sys\\_stdint.h"
 569              		.file 4 "c:\\arm_gcc\\arm-none-eabi\\include\\sys\\lock.h"
 570              		.file 5 "c:\\arm_gcc\\arm-none-eabi\\include\\sys\\_types.h"
 571              		.file 6 "c:\\arm_gcc\\lib\\gcc\\arm-none-eabi\\9.2.1\\include\\stddef.h"
 572              		.file 7 "c:\\arm_gcc\\arm-none-eabi\\include\\sys\\reent.h"
 573              		.file 8 "c:\\arm_gcc\\arm-none-eabi\\include\\stdlib.h"
 574              		.file 9 "Drivers/CMSIS/Include/core_cm4.h"
 575              		.file 10 "Drivers/CMSIS/Device/ST/STM32F4xx/Include/system_stm32f4xx.h"
 576              		.file 11 "mylib/uart_ext.h"
 577              		.file 12 "Inc/foc.h"
 578              		.file 13 "mylib/command.h"
 579              		.file 14 "Drivers/STM32F4xx_HAL_Driver/Inc/stm32f4xx_hal.h"
ARM GAS  C:\Users\ncer\AppData\Local\Temp\cc2eApob.s 			page 15


ARM GAS  C:\Users\ncer\AppData\Local\Temp\cc2eApob.s 			page 16


DEFINED SYMBOLS
                            *ABS*:00000000 myfunc.c
C:\Users\ncer\AppData\Local\Temp\cc2eApob.s:18     .text.test_direction:00000000 $t
C:\Users\ncer\AppData\Local\Temp\cc2eApob.s:26     .text.test_direction:00000000 test_direction
C:\Users\ncer\AppData\Local\Temp\cc2eApob.s:48     .text.test_direction:00000008 $d
C:\Users\ncer\AppData\Local\Temp\cc2eApob.s:54     .rodata.get_position.str1.4:00000000 $d
C:\Users\ncer\AppData\Local\Temp\cc2eApob.s:58     .text.get_position:00000000 $t
C:\Users\ncer\AppData\Local\Temp\cc2eApob.s:65     .text.get_position:00000000 get_position
C:\Users\ncer\AppData\Local\Temp\cc2eApob.s:97     .text.get_position:00000018 $d
C:\Users\ncer\AppData\Local\Temp\cc2eApob.s:103    .rodata.test.str1.4:00000000 $d
C:\Users\ncer\AppData\Local\Temp\cc2eApob.s:116    .text.test:00000000 $t
C:\Users\ncer\AppData\Local\Temp\cc2eApob.s:122    .text.test:00000000 test
C:\Users\ncer\AppData\Local\Temp\cc2eApob.s:210    .text.test:00000050 $d
C:\Users\ncer\AppData\Local\Temp\cc2eApob.s:218    .rodata.set_to_u4.str1.4:00000000 $d
C:\Users\ncer\AppData\Local\Temp\cc2eApob.s:222    .text.set_to_u4:00000000 $t
C:\Users\ncer\AppData\Local\Temp\cc2eApob.s:229    .text.set_to_u4:00000000 set_to_u4
C:\Users\ncer\AppData\Local\Temp\cc2eApob.s:286    .text.set_to_u4:00000034 $d
C:\Users\ncer\AppData\Local\Temp\cc2eApob.s:291    .rodata.set_val.str1.4:00000000 $d
C:\Users\ncer\AppData\Local\Temp\cc2eApob.s:310    .text.set_val:00000000 $t
C:\Users\ncer\AppData\Local\Temp\cc2eApob.s:317    .text.set_val:00000000 set_val
C:\Users\ncer\AppData\Local\Temp\cc2eApob.s:479    .text.set_val:000000a8 $d
C:\Users\ncer\AppData\Local\Temp\cc2eApob.s:490    .rodata.command_init.str1.4:00000000 $d
C:\Users\ncer\AppData\Local\Temp\cc2eApob.s:503    .text.command_init:00000000 $t
C:\Users\ncer\AppData\Local\Temp\cc2eApob.s:510    .text.command_init:00000000 command_init
C:\Users\ncer\AppData\Local\Temp\cc2eApob.s:546    .text.command_init:00000024 $d
C:\Users\ncer\AppData\Local\Temp\cc2eApob.s:563    .bss.Var_List:00000000 Var_List
C:\Users\ncer\AppData\Local\Temp\cc2eApob.s:559    .bss.Var_List:00000000 $d

UNDEFINED SYMBOLS
Board_Mode
__aeabi_f2d
uprintf
Position_Degree
Set_to_U4
HAL_Delay
compare_string
add_cmd
