ARM GAS  C:\Users\ncer\AppData\Local\Temp\ccj0JV7h.s 			page 1


   1              		.cpu cortex-m4
   2              		.eabi_attribute 27, 1
   3              		.eabi_attribute 28, 1
   4              		.eabi_attribute 20, 1
   5              		.eabi_attribute 21, 1
   6              		.eabi_attribute 23, 3
   7              		.eabi_attribute 24, 1
   8              		.eabi_attribute 25, 1
   9              		.eabi_attribute 26, 1
  10              		.eabi_attribute 30, 1
  11              		.eabi_attribute 34, 1
  12              		.eabi_attribute 18, 4
  13              		.file	"myfunc.c"
  14              		.text
  15              	.Ltext0:
  16              		.cfi_sections	.debug_frame
  17              		.section	.text.test_direction,"ax",%progbits
  18              		.align	1
  19              		.global	test_direction
  20              		.arch armv7e-m
  21              		.syntax unified
  22              		.thumb
  23              		.thumb_func
  24              		.fpu fpv4-sp-d16
  26              	test_direction:
  27              	.LVL0:
  28              	.LFB137:
  29              		.file 1 "Src/myfunc.c"
   1:Src/myfunc.c  **** #include "command.h"
   2:Src/myfunc.c  **** #include "uart_ext.h"
   3:Src/myfunc.c  **** #include "cmd_fun.h"
   4:Src/myfunc.c  **** 
   5:Src/myfunc.c  **** typedef struct{
   6:Src/myfunc.c  ****   char * var_name;
   7:Src/myfunc.c  ****   void * value_ptr;
   8:Src/myfunc.c  **** }Var_Edit_Struct;
   9:Src/myfunc.c  **** 
  10:Src/myfunc.c  **** Var_Edit_Struct Var_List[10]={
  11:Src/myfunc.c  ****   //{"first",&First_Time_Check}
  12:Src/myfunc.c  ****   0
  13:Src/myfunc.c  **** };
  14:Src/myfunc.c  **** 
  15:Src/myfunc.c  **** static void test(int arg_num,char **string_prams,float * arg){
  16:Src/myfunc.c  ****   int i;
  17:Src/myfunc.c  ****   uprintf("this is testkk\r\n");
  18:Src/myfunc.c  ****   uprintf("i get %d args\r\n",arg_num);
  19:Src/myfunc.c  ****   for(i=0;i<(arg_num&0xFF);++i){
  20:Src/myfunc.c  ****     uprintf("one is %f\r\n",arg[i]);
  21:Src/myfunc.c  ****   }
  22:Src/myfunc.c  ****   for(i=0;i<(arg_num>>8);++i){
  23:Src/myfunc.c  ****     uprintf("string_prams is %s\r\n",string_prams[i]);
  24:Src/myfunc.c  ****   }
  25:Src/myfunc.c  **** }
  26:Src/myfunc.c  **** 
  27:Src/myfunc.c  **** void set_val(int arg_num,char ** s,float * args){
  28:Src/myfunc.c  ****   void * edit_value;
  29:Src/myfunc.c  ****   if(arg_num!=0x0201){
ARM GAS  C:\Users\ncer\AppData\Local\Temp\ccj0JV7h.s 			page 2


  30:Src/myfunc.c  ****     uprintf("error arg_num!\r\n");
  31:Src/myfunc.c  ****     return ;
  32:Src/myfunc.c  ****   }
  33:Src/myfunc.c  **** 
  34:Src/myfunc.c  ****   for(int i=0;i<sizeof(Var_List)/sizeof(Var_Edit_Struct);++i){
  35:Src/myfunc.c  ****     if(compare_string(Var_List[i].var_name,s[0])){
  36:Src/myfunc.c  ****       edit_value=Var_List[i].value_ptr;
  37:Src/myfunc.c  ****       break;
  38:Src/myfunc.c  ****     }
  39:Src/myfunc.c  ****   }
  40:Src/myfunc.c  ****   
  41:Src/myfunc.c  ****   if(compare_string(s[1],"u8")){
  42:Src/myfunc.c  ****     *(uint8_t *)edit_value=(uint8_t)args[0];
  43:Src/myfunc.c  ****     uprintf("ok set %s = %d\r\n",s[0],*(uint8_t *)edit_value);  
  44:Src/myfunc.c  ****   }else if(compare_string(s[1],"int")){
  45:Src/myfunc.c  ****     *(int16_t *)edit_value=(int16_t)args[0];
  46:Src/myfunc.c  ****     uprintf("ok set %s = %d\r\n",s[0],*(int16_t *)edit_value);
  47:Src/myfunc.c  ****   }else if(compare_string(s[1],"f")){
  48:Src/myfunc.c  ****     *(float *)edit_value=args[0];
  49:Src/myfunc.c  ****     uprintf("ok set %s = %f\r\n",s[0],*(float *)edit_value);
  50:Src/myfunc.c  ****   }
  51:Src/myfunc.c  **** }
  52:Src/myfunc.c  **** 
  53:Src/myfunc.c  **** 
  54:Src/myfunc.c  **** 
  55:Src/myfunc.c  **** 
  56:Src/myfunc.c  **** /*
  57:Src/myfunc.c  **** 下面定义用户需要的函数
  58:Src/myfunc.c  **** 
  59:Src/myfunc.c  **** */
  60:Src/myfunc.c  **** #include "foc.h"
  61:Src/myfunc.c  **** void set_to_u4(int arg_num,char ** s,float * args){
  62:Src/myfunc.c  ****   uint8_t temp_t;
  63:Src/myfunc.c  ****   if(arg_num!=0x0001){
  64:Src/myfunc.c  ****     return ;
  65:Src/myfunc.c  ****   }
  66:Src/myfunc.c  ****   temp_t=(uint8_t)args[0];
  67:Src/myfunc.c  ****   Set_to_U4(temp_t);
  68:Src/myfunc.c  ****   HAL_Delay(5);
  69:Src/myfunc.c  ****   uprintf("OK set to us and keep %d ms\r\n",temp_t);
  70:Src/myfunc.c  **** }
  71:Src/myfunc.c  **** 
  72:Src/myfunc.c  **** void get_position(int arg_num,char **s,float *args){
  73:Src/myfunc.c  ****   uprintf("Position:%f\r\n",Position_Degree);
  74:Src/myfunc.c  ****   return ;
  75:Src/myfunc.c  **** }
  76:Src/myfunc.c  **** 
  77:Src/myfunc.c  **** extern enum{
  78:Src/myfunc.c  ****     STOP_MODE,
  79:Src/myfunc.c  ****     WAIT_MODE,
  80:Src/myfunc.c  ****     SENSOR_FOC,
  81:Src/myfunc.c  ****     SENSOR_LESS_FOC,
  82:Src/myfunc.c  ****     VF_OPENLOOP,
  83:Src/myfunc.c  ****     MEASURE_R,
  84:Src/myfunc.c  ****     MEASURE_L,
  85:Src/myfunc.c  ****     TEST_DIRECTION=0xF1,
  86:Src/myfunc.c  ****     TEST_POSITION_OFFSET
ARM GAS  C:\Users\ncer\AppData\Local\Temp\ccj0JV7h.s 			page 3


  87:Src/myfunc.c  **** }Board_Mode;
  88:Src/myfunc.c  **** void test_direction(int arg_num,char **s,float *args){
  30              		.loc 1 88 54 view -0
  31              		.cfi_startproc
  32              		@ args = 0, pretend = 0, frame = 0
  33              		@ frame_needed = 0, uses_anonymous_args = 0
  34              		@ link register save eliminated.
  89:Src/myfunc.c  ****   Board_Mode=TEST_DIRECTION;
  35              		.loc 1 89 3 view .LVU1
  36              		.loc 1 89 13 is_stmt 0 view .LVU2
  37 0000 014B     		ldr	r3, .L2
  38 0002 F122     		movs	r2, #241
  39              	.LVL1:
  40              		.loc 1 89 13 view .LVU3
  41 0004 1A70     		strb	r2, [r3]
  90:Src/myfunc.c  ****   return ;
  42              		.loc 1 90 3 is_stmt 1 view .LVU4
  91:Src/myfunc.c  **** }
  43              		.loc 1 91 1 is_stmt 0 view .LVU5
  44 0006 7047     		bx	lr
  45              	.L3:
  46              		.align	2
  47              	.L2:
  48 0008 00000000 		.word	Board_Mode
  49              		.cfi_endproc
  50              	.LFE137:
  52              		.section	.text.measure_r,"ax",%progbits
  53              		.align	1
  54              		.global	measure_r
  55              		.syntax unified
  56              		.thumb
  57              		.thumb_func
  58              		.fpu fpv4-sp-d16
  60              	measure_r:
  61              	.LVL2:
  62              	.LFB138:
  92:Src/myfunc.c  **** 
  93:Src/myfunc.c  **** void measure_r(int arg_num,char **s,float *args){
  63              		.loc 1 93 49 is_stmt 1 view -0
  64              		.cfi_startproc
  65              		@ args = 0, pretend = 0, frame = 0
  66              		@ frame_needed = 0, uses_anonymous_args = 0
  67              		@ link register save eliminated.
  94:Src/myfunc.c  ****   Board_Mode=MEASURE_R;
  68              		.loc 1 94 3 view .LVU7
  69              		.loc 1 94 13 is_stmt 0 view .LVU8
  70 0000 014B     		ldr	r3, .L5
  71 0002 0522     		movs	r2, #5
  72              	.LVL3:
  73              		.loc 1 94 13 view .LVU9
  74 0004 1A70     		strb	r2, [r3]
  95:Src/myfunc.c  ****   return ;
  75              		.loc 1 95 3 is_stmt 1 view .LVU10
  96:Src/myfunc.c  **** }
  76              		.loc 1 96 1 is_stmt 0 view .LVU11
  77 0006 7047     		bx	lr
  78              	.L6:
ARM GAS  C:\Users\ncer\AppData\Local\Temp\ccj0JV7h.s 			page 4


  79              		.align	2
  80              	.L5:
  81 0008 00000000 		.word	Board_Mode
  82              		.cfi_endproc
  83              	.LFE138:
  85              		.global	__aeabi_f2d
  86              		.section	.rodata.get_position.str1.4,"aMS",%progbits,1
  87              		.align	2
  88              	.LC0:
  89 0000 506F7369 		.ascii	"Position:%f\015\012\000"
  89      74696F6E 
  89      3A25660D 
  89      0A00
  90              		.section	.text.get_position,"ax",%progbits
  91              		.align	1
  92              		.global	get_position
  93              		.syntax unified
  94              		.thumb
  95              		.thumb_func
  96              		.fpu fpv4-sp-d16
  98              	get_position:
  99              	.LVL4:
 100              	.LFB136:
  72:Src/myfunc.c  ****   uprintf("Position:%f\r\n",Position_Degree);
 101              		.loc 1 72 52 is_stmt 1 view -0
 102              		.cfi_startproc
 103              		@ args = 0, pretend = 0, frame = 0
 104              		@ frame_needed = 0, uses_anonymous_args = 0
  72:Src/myfunc.c  ****   uprintf("Position:%f\r\n",Position_Degree);
 105              		.loc 1 72 52 is_stmt 0 view .LVU13
 106 0000 08B5     		push	{r3, lr}
 107              	.LCFI0:
 108              		.cfi_def_cfa_offset 8
 109              		.cfi_offset 3, -8
 110              		.cfi_offset 14, -4
  73:Src/myfunc.c  ****   return ;
 111              		.loc 1 73 3 is_stmt 1 view .LVU14
 112 0002 054B     		ldr	r3, .L9
 113 0004 1868     		ldr	r0, [r3]	@ float
 114              	.LVL5:
  73:Src/myfunc.c  ****   return ;
 115              		.loc 1 73 3 is_stmt 0 view .LVU15
 116 0006 FFF7FEFF 		bl	__aeabi_f2d
 117              	.LVL6:
  73:Src/myfunc.c  ****   return ;
 118              		.loc 1 73 3 view .LVU16
 119 000a 0246     		mov	r2, r0
 120 000c 0B46     		mov	r3, r1
 121 000e 0348     		ldr	r0, .L9+4
 122 0010 FFF7FEFF 		bl	uprintf
 123              	.LVL7:
  74:Src/myfunc.c  **** }
 124              		.loc 1 74 3 is_stmt 1 view .LVU17
  75:Src/myfunc.c  **** 
 125              		.loc 1 75 1 is_stmt 0 view .LVU18
 126 0014 08BD     		pop	{r3, pc}
 127              	.L10:
ARM GAS  C:\Users\ncer\AppData\Local\Temp\ccj0JV7h.s 			page 5


 128 0016 00BF     		.align	2
 129              	.L9:
 130 0018 00000000 		.word	Position_Degree
 131 001c 00000000 		.word	.LC0
 132              		.cfi_endproc
 133              	.LFE136:
 135              		.section	.rodata.test.str1.4,"aMS",%progbits,1
 136              		.align	2
 137              	.LC1:
 138 0000 74686973 		.ascii	"this is testkk\015\012\000"
 138      20697320 
 138      74657374 
 138      6B6B0D0A 
 138      00
 139 0011 000000   		.align	2
 140              	.LC2:
 141 0014 69206765 		.ascii	"i get %d args\015\012\000"
 141      74202564 
 141      20617267 
 141      730D0A00 
 142              		.align	2
 143              	.LC3:
 144 0024 6F6E6520 		.ascii	"one is %f\015\012\000"
 144      69732025 
 144      660D0A00 
 145              		.align	2
 146              	.LC4:
 147 0030 73747269 		.ascii	"string_prams is %s\015\012\000"
 147      6E675F70 
 147      72616D73 
 147      20697320 
 147      25730D0A 
 148              		.section	.text.test,"ax",%progbits
 149              		.align	1
 150              		.syntax unified
 151              		.thumb
 152              		.thumb_func
 153              		.fpu fpv4-sp-d16
 155              	test:
 156              	.LVL8:
 157              	.LFB133:
  15:Src/myfunc.c  ****   int i;
 158              		.loc 1 15 62 is_stmt 1 view -0
 159              		.cfi_startproc
 160              		@ args = 0, pretend = 0, frame = 0
 161              		@ frame_needed = 0, uses_anonymous_args = 0
  15:Src/myfunc.c  ****   int i;
 162              		.loc 1 15 62 is_stmt 0 view .LVU20
 163 0000 F8B5     		push	{r3, r4, r5, r6, r7, lr}
 164              	.LCFI1:
 165              		.cfi_def_cfa_offset 24
 166              		.cfi_offset 3, -24
 167              		.cfi_offset 4, -20
 168              		.cfi_offset 5, -16
 169              		.cfi_offset 6, -12
 170              		.cfi_offset 7, -8
 171              		.cfi_offset 14, -4
ARM GAS  C:\Users\ncer\AppData\Local\Temp\ccj0JV7h.s 			page 6


 172 0002 0546     		mov	r5, r0
 173 0004 0E46     		mov	r6, r1
 174 0006 1746     		mov	r7, r2
  16:Src/myfunc.c  ****   uprintf("this is testkk\r\n");
 175              		.loc 1 16 3 is_stmt 1 view .LVU21
  17:Src/myfunc.c  ****   uprintf("i get %d args\r\n",arg_num);
 176              		.loc 1 17 3 view .LVU22
 177 0008 1148     		ldr	r0, .L18
 178              	.LVL9:
  17:Src/myfunc.c  ****   uprintf("i get %d args\r\n",arg_num);
 179              		.loc 1 17 3 is_stmt 0 view .LVU23
 180 000a FFF7FEFF 		bl	uprintf
 181              	.LVL10:
  18:Src/myfunc.c  ****   for(i=0;i<(arg_num&0xFF);++i){
 182              		.loc 1 18 3 is_stmt 1 view .LVU24
 183 000e 2946     		mov	r1, r5
 184 0010 1048     		ldr	r0, .L18+4
 185 0012 FFF7FEFF 		bl	uprintf
 186              	.LVL11:
  19:Src/myfunc.c  ****     uprintf("one is %f\r\n",arg[i]);
 187              		.loc 1 19 3 view .LVU25
  19:Src/myfunc.c  ****     uprintf("one is %f\r\n",arg[i]);
 188              		.loc 1 19 8 is_stmt 0 view .LVU26
 189 0016 0024     		movs	r4, #0
 190              	.LVL12:
 191              	.L12:
  19:Src/myfunc.c  ****     uprintf("one is %f\r\n",arg[i]);
 192              		.loc 1 19 11 is_stmt 1 discriminator 1 view .LVU27
  19:Src/myfunc.c  ****     uprintf("one is %f\r\n",arg[i]);
 193              		.loc 1 19 21 is_stmt 0 discriminator 1 view .LVU28
 194 0018 EBB2     		uxtb	r3, r5
  19:Src/myfunc.c  ****     uprintf("one is %f\r\n",arg[i]);
 195              		.loc 1 19 3 discriminator 1 view .LVU29
 196 001a A342     		cmp	r3, r4
 197 001c 0BDD     		ble	.L17
  20:Src/myfunc.c  ****   }
 198              		.loc 1 20 5 is_stmt 1 discriminator 3 view .LVU30
  20:Src/myfunc.c  ****   }
 199              		.loc 1 20 32 is_stmt 0 discriminator 3 view .LVU31
 200 001e 07EB8403 		add	r3, r7, r4, lsl #2
  20:Src/myfunc.c  ****   }
 201              		.loc 1 20 5 discriminator 3 view .LVU32
 202 0022 1868     		ldr	r0, [r3]	@ float
 203 0024 FFF7FEFF 		bl	__aeabi_f2d
 204              	.LVL13:
 205 0028 0246     		mov	r2, r0
 206 002a 0B46     		mov	r3, r1
 207 002c 0A48     		ldr	r0, .L18+8
 208 002e FFF7FEFF 		bl	uprintf
 209              	.LVL14:
  19:Src/myfunc.c  ****     uprintf("one is %f\r\n",arg[i]);
 210              		.loc 1 19 28 is_stmt 1 discriminator 3 view .LVU33
 211 0032 0134     		adds	r4, r4, #1
 212              	.LVL15:
  19:Src/myfunc.c  ****     uprintf("one is %f\r\n",arg[i]);
 213              		.loc 1 19 28 is_stmt 0 discriminator 3 view .LVU34
 214 0034 F0E7     		b	.L12
ARM GAS  C:\Users\ncer\AppData\Local\Temp\ccj0JV7h.s 			page 7


 215              	.L17:
  22:Src/myfunc.c  ****     uprintf("string_prams is %s\r\n",string_prams[i]);
 216              		.loc 1 22 8 view .LVU35
 217 0036 0024     		movs	r4, #0
 218              	.LVL16:
  22:Src/myfunc.c  ****     uprintf("string_prams is %s\r\n",string_prams[i]);
 219              		.loc 1 22 8 view .LVU36
 220 0038 05E0     		b	.L14
 221              	.LVL17:
 222              	.L15:
  23:Src/myfunc.c  ****   }
 223              		.loc 1 23 5 is_stmt 1 discriminator 3 view .LVU37
 224 003a 56F82410 		ldr	r1, [r6, r4, lsl #2]
 225 003e 0748     		ldr	r0, .L18+12
 226 0040 FFF7FEFF 		bl	uprintf
 227              	.LVL18:
  22:Src/myfunc.c  ****     uprintf("string_prams is %s\r\n",string_prams[i]);
 228              		.loc 1 22 26 discriminator 3 view .LVU38
 229 0044 0134     		adds	r4, r4, #1
 230              	.LVL19:
 231              	.L14:
  22:Src/myfunc.c  ****     uprintf("string_prams is %s\r\n",string_prams[i]);
 232              		.loc 1 22 11 discriminator 1 view .LVU39
  22:Src/myfunc.c  ****     uprintf("string_prams is %s\r\n",string_prams[i]);
 233              		.loc 1 22 3 is_stmt 0 discriminator 1 view .LVU40
 234 0046 B4EB252F 		cmp	r4, r5, asr #8
 235 004a F6DB     		blt	.L15
  25:Src/myfunc.c  **** 
 236              		.loc 1 25 1 view .LVU41
 237 004c F8BD     		pop	{r3, r4, r5, r6, r7, pc}
 238              	.LVL20:
 239              	.L19:
  25:Src/myfunc.c  **** 
 240              		.loc 1 25 1 view .LVU42
 241 004e 00BF     		.align	2
 242              	.L18:
 243 0050 00000000 		.word	.LC1
 244 0054 14000000 		.word	.LC2
 245 0058 24000000 		.word	.LC3
 246 005c 30000000 		.word	.LC4
 247              		.cfi_endproc
 248              	.LFE133:
 250              		.section	.rodata.set_to_u4.str1.4,"aMS",%progbits,1
 251              		.align	2
 252              	.LC5:
 253 0000 4F4B2073 		.ascii	"OK set to us and keep %d ms\015\012\000"
 253      65742074 
 253      6F207573 
 253      20616E64 
 253      206B6565 
 254              		.section	.text.set_to_u4,"ax",%progbits
 255              		.align	1
 256              		.global	set_to_u4
 257              		.syntax unified
 258              		.thumb
 259              		.thumb_func
 260              		.fpu fpv4-sp-d16
ARM GAS  C:\Users\ncer\AppData\Local\Temp\ccj0JV7h.s 			page 8


 262              	set_to_u4:
 263              	.LVL21:
 264              	.LFB135:
  61:Src/myfunc.c  ****   uint8_t temp_t;
 265              		.loc 1 61 51 is_stmt 1 view -0
 266              		.cfi_startproc
 267              		@ args = 0, pretend = 0, frame = 8
 268              		@ frame_needed = 0, uses_anonymous_args = 0
  62:Src/myfunc.c  ****   if(arg_num!=0x0001){
 269              		.loc 1 62 3 view .LVU44
  63:Src/myfunc.c  ****     return ;
 270              		.loc 1 63 3 view .LVU45
  63:Src/myfunc.c  ****     return ;
 271              		.loc 1 63 5 is_stmt 0 view .LVU46
 272 0000 0128     		cmp	r0, #1
 273 0002 00D0     		beq	.L26
 274 0004 7047     		bx	lr
 275              	.L26:
  61:Src/myfunc.c  ****   uint8_t temp_t;
 276              		.loc 1 61 51 view .LVU47
 277 0006 10B5     		push	{r4, lr}
 278              	.LCFI2:
 279              		.cfi_def_cfa_offset 8
 280              		.cfi_offset 4, -8
 281              		.cfi_offset 14, -4
 282 0008 82B0     		sub	sp, sp, #8
 283              	.LCFI3:
 284              		.cfi_def_cfa_offset 16
  66:Src/myfunc.c  ****   Set_to_U4(temp_t);
 285              		.loc 1 66 3 is_stmt 1 view .LVU48
  66:Src/myfunc.c  ****   Set_to_U4(temp_t);
 286              		.loc 1 66 23 is_stmt 0 view .LVU49
 287 000a D2ED007A 		vldr.32	s15, [r2]
  66:Src/myfunc.c  ****   Set_to_U4(temp_t);
 288              		.loc 1 66 9 view .LVU50
 289 000e FCEEE77A 		vcvt.u32.f32	s15, s15
 290 0012 CDED017A 		vstr.32	s15, [sp, #4]	@ int
 291 0016 9DF80440 		ldrb	r4, [sp, #4]	@ zero_extendqisi2
 292              	.LVL22:
  67:Src/myfunc.c  ****   HAL_Delay(5);
 293              		.loc 1 67 3 is_stmt 1 view .LVU51
 294 001a 2046     		mov	r0, r4
 295              	.LVL23:
  67:Src/myfunc.c  ****   HAL_Delay(5);
 296              		.loc 1 67 3 is_stmt 0 view .LVU52
 297 001c FFF7FEFF 		bl	Set_to_U4
 298              	.LVL24:
  68:Src/myfunc.c  ****   uprintf("OK set to us and keep %d ms\r\n",temp_t);
 299              		.loc 1 68 3 is_stmt 1 view .LVU53
 300 0020 0520     		movs	r0, #5
 301 0022 FFF7FEFF 		bl	HAL_Delay
 302              	.LVL25:
  69:Src/myfunc.c  **** }
 303              		.loc 1 69 3 view .LVU54
 304 0026 2146     		mov	r1, r4
 305 0028 0248     		ldr	r0, .L27
 306 002a FFF7FEFF 		bl	uprintf
ARM GAS  C:\Users\ncer\AppData\Local\Temp\ccj0JV7h.s 			page 9


 307              	.LVL26:
  70:Src/myfunc.c  **** 
 308              		.loc 1 70 1 is_stmt 0 view .LVU55
 309 002e 02B0     		add	sp, sp, #8
 310              	.LCFI4:
 311              		.cfi_def_cfa_offset 8
 312              		@ sp needed
 313 0030 10BD     		pop	{r4, pc}
 314              	.LVL27:
 315              	.L28:
  70:Src/myfunc.c  **** 
 316              		.loc 1 70 1 view .LVU56
 317 0032 00BF     		.align	2
 318              	.L27:
 319 0034 00000000 		.word	.LC5
 320              		.cfi_endproc
 321              	.LFE135:
 323              		.section	.rodata.set_val.str1.4,"aMS",%progbits,1
 324              		.align	2
 325              	.LC6:
 326 0000 6572726F 		.ascii	"error arg_num!\015\012\000"
 326      72206172 
 326      675F6E75 
 326      6D210D0A 
 326      00
 327 0011 000000   		.align	2
 328              	.LC7:
 329 0014 753800   		.ascii	"u8\000"
 330 0017 00       		.align	2
 331              	.LC8:
 332 0018 6F6B2073 		.ascii	"ok set %s = %d\015\012\000"
 332      65742025 
 332      73203D20 
 332      25640D0A 
 332      00
 333 0029 000000   		.align	2
 334              	.LC9:
 335 002c 696E7400 		.ascii	"int\000"
 336              		.align	2
 337              	.LC10:
 338 0030 6600     		.ascii	"f\000"
 339 0032 0000     		.align	2
 340              	.LC11:
 341 0034 6F6B2073 		.ascii	"ok set %s = %f\015\012\000"
 341      65742025 
 341      73203D20 
 341      25660D0A 
 341      00
 342              		.section	.text.set_val,"ax",%progbits
 343              		.align	1
 344              		.global	set_val
 345              		.syntax unified
 346              		.thumb
 347              		.thumb_func
 348              		.fpu fpv4-sp-d16
 350              	set_val:
 351              	.LVL28:
ARM GAS  C:\Users\ncer\AppData\Local\Temp\ccj0JV7h.s 			page 10


 352              	.LFB134:
  27:Src/myfunc.c  ****   void * edit_value;
 353              		.loc 1 27 49 is_stmt 1 view -0
 354              		.cfi_startproc
 355              		@ args = 0, pretend = 0, frame = 8
 356              		@ frame_needed = 0, uses_anonymous_args = 0
  27:Src/myfunc.c  ****   void * edit_value;
 357              		.loc 1 27 49 is_stmt 0 view .LVU58
 358 0000 F0B5     		push	{r4, r5, r6, r7, lr}
 359              	.LCFI5:
 360              		.cfi_def_cfa_offset 20
 361              		.cfi_offset 4, -20
 362              		.cfi_offset 5, -16
 363              		.cfi_offset 6, -12
 364              		.cfi_offset 7, -8
 365              		.cfi_offset 14, -4
 366 0002 83B0     		sub	sp, sp, #12
 367              	.LCFI6:
 368              		.cfi_def_cfa_offset 32
  28:Src/myfunc.c  ****   if(arg_num!=0x0201){
 369              		.loc 1 28 3 is_stmt 1 view .LVU59
  29:Src/myfunc.c  ****     uprintf("error arg_num!\r\n");
 370              		.loc 1 29 3 view .LVU60
  29:Src/myfunc.c  ****     uprintf("error arg_num!\r\n");
 371              		.loc 1 29 5 is_stmt 0 view .LVU61
 372 0004 40F20123 		movw	r3, #513
 373 0008 9842     		cmp	r0, r3
 374 000a 0DD1     		bne	.L39
 375 000c 0D46     		mov	r5, r1
 376 000e 1746     		mov	r7, r2
 377              	.LBB2:
  34:Src/myfunc.c  ****     if(compare_string(Var_List[i].var_name,s[0])){
 378              		.loc 1 34 11 view .LVU62
 379 0010 0024     		movs	r4, #0
 380              	.LVL29:
 381              	.L30:
  34:Src/myfunc.c  ****     if(compare_string(Var_List[i].var_name,s[0])){
 382              		.loc 1 34 15 is_stmt 1 discriminator 1 view .LVU63
  34:Src/myfunc.c  ****     if(compare_string(Var_List[i].var_name,s[0])){
 383              		.loc 1 34 3 is_stmt 0 discriminator 1 view .LVU64
 384 0012 092C     		cmp	r4, #9
 385 0014 10D8     		bhi	.L33
  35:Src/myfunc.c  ****       edit_value=Var_List[i].value_ptr;
 386              		.loc 1 35 5 is_stmt 1 view .LVU65
  35:Src/myfunc.c  ****       edit_value=Var_List[i].value_ptr;
 387              		.loc 1 35 8 is_stmt 0 view .LVU66
 388 0016 2968     		ldr	r1, [r5]
 389 0018 234B     		ldr	r3, .L41
 390 001a 53F83400 		ldr	r0, [r3, r4, lsl #3]
 391 001e FFF7FEFF 		bl	compare_string
 392              	.LVL30:
  35:Src/myfunc.c  ****       edit_value=Var_List[i].value_ptr;
 393              		.loc 1 35 7 view .LVU67
 394 0022 28B9     		cbnz	r0, .L40
  34:Src/myfunc.c  ****     if(compare_string(Var_List[i].var_name,s[0])){
 395              		.loc 1 34 58 is_stmt 1 discriminator 2 view .LVU68
 396 0024 0134     		adds	r4, r4, #1
ARM GAS  C:\Users\ncer\AppData\Local\Temp\ccj0JV7h.s 			page 11


 397              	.LVL31:
  34:Src/myfunc.c  ****     if(compare_string(Var_List[i].var_name,s[0])){
 398              		.loc 1 34 58 is_stmt 0 discriminator 2 view .LVU69
 399 0026 F4E7     		b	.L30
 400              	.LVL32:
 401              	.L39:
  34:Src/myfunc.c  ****     if(compare_string(Var_List[i].var_name,s[0])){
 402              		.loc 1 34 58 discriminator 2 view .LVU70
 403              	.LBE2:
  30:Src/myfunc.c  ****     return ;
 404              		.loc 1 30 5 is_stmt 1 view .LVU71
 405 0028 2048     		ldr	r0, .L41+4
 406              	.LVL33:
  30:Src/myfunc.c  ****     return ;
 407              		.loc 1 30 5 is_stmt 0 view .LVU72
 408 002a FFF7FEFF 		bl	uprintf
 409              	.LVL34:
  31:Src/myfunc.c  ****   }
 410              		.loc 1 31 5 is_stmt 1 view .LVU73
 411 002e 15E0     		b	.L29
 412              	.LVL35:
 413              	.L40:
 414              	.LBB3:
  36:Src/myfunc.c  ****       break;
 415              		.loc 1 36 7 view .LVU74
  36:Src/myfunc.c  ****       break;
 416              		.loc 1 36 17 is_stmt 0 view .LVU75
 417 0030 1D4B     		ldr	r3, .L41
 418 0032 03EBC404 		add	r4, r3, r4, lsl #3
 419              	.LVL36:
  36:Src/myfunc.c  ****       break;
 420              		.loc 1 36 17 view .LVU76
 421 0036 6668     		ldr	r6, [r4, #4]
 422              	.LVL37:
  37:Src/myfunc.c  ****     }
 423              		.loc 1 37 7 is_stmt 1 view .LVU77
 424              	.L33:
  37:Src/myfunc.c  ****     }
 425              		.loc 1 37 7 is_stmt 0 view .LVU78
 426              	.LBE3:
  41:Src/myfunc.c  ****     *(uint8_t *)edit_value=(uint8_t)args[0];
 427              		.loc 1 41 3 is_stmt 1 view .LVU79
  41:Src/myfunc.c  ****     *(uint8_t *)edit_value=(uint8_t)args[0];
 428              		.loc 1 41 6 is_stmt 0 view .LVU80
 429 0038 1D49     		ldr	r1, .L41+8
 430 003a 6868     		ldr	r0, [r5, #4]
 431 003c FFF7FEFF 		bl	compare_string
 432              	.LVL38:
  41:Src/myfunc.c  ****     *(uint8_t *)edit_value=(uint8_t)args[0];
 433              		.loc 1 41 5 view .LVU81
 434 0040 70B1     		cbz	r0, .L35
  42:Src/myfunc.c  ****     uprintf("ok set %s = %d\r\n",s[0],*(uint8_t *)edit_value);  
 435              		.loc 1 42 5 is_stmt 1 view .LVU82
  42:Src/myfunc.c  ****     uprintf("ok set %s = %d\r\n",s[0],*(uint8_t *)edit_value);  
 436              		.loc 1 42 41 is_stmt 0 view .LVU83
 437 0042 D7ED007A 		vldr.32	s15, [r7]
  42:Src/myfunc.c  ****     uprintf("ok set %s = %d\r\n",s[0],*(uint8_t *)edit_value);  
ARM GAS  C:\Users\ncer\AppData\Local\Temp\ccj0JV7h.s 			page 12


 438              		.loc 1 42 28 view .LVU84
 439 0046 FCEEE77A 		vcvt.u32.f32	s15, s15
 440 004a CDED017A 		vstr.32	s15, [sp, #4]	@ int
 441 004e 9DF80420 		ldrb	r2, [sp, #4]	@ zero_extendqisi2
  42:Src/myfunc.c  ****     uprintf("ok set %s = %d\r\n",s[0],*(uint8_t *)edit_value);  
 442              		.loc 1 42 27 view .LVU85
 443 0052 3270     		strb	r2, [r6]
  43:Src/myfunc.c  ****   }else if(compare_string(s[1],"int")){
 444              		.loc 1 43 5 is_stmt 1 view .LVU86
 445 0054 2968     		ldr	r1, [r5]
 446 0056 1748     		ldr	r0, .L41+12
 447 0058 FFF7FEFF 		bl	uprintf
 448              	.LVL39:
 449              	.L29:
  51:Src/myfunc.c  **** 
 450              		.loc 1 51 1 is_stmt 0 view .LVU87
 451 005c 03B0     		add	sp, sp, #12
 452              	.LCFI7:
 453              		.cfi_remember_state
 454              		.cfi_def_cfa_offset 20
 455              		@ sp needed
 456 005e F0BD     		pop	{r4, r5, r6, r7, pc}
 457              	.LVL40:
 458              	.L35:
 459              	.LCFI8:
 460              		.cfi_restore_state
  44:Src/myfunc.c  ****     *(int16_t *)edit_value=(int16_t)args[0];
 461              		.loc 1 44 9 is_stmt 1 view .LVU88
  44:Src/myfunc.c  ****     *(int16_t *)edit_value=(int16_t)args[0];
 462              		.loc 1 44 12 is_stmt 0 view .LVU89
 463 0060 1549     		ldr	r1, .L41+16
 464 0062 6868     		ldr	r0, [r5, #4]
 465 0064 FFF7FEFF 		bl	compare_string
 466              	.LVL41:
  44:Src/myfunc.c  ****     *(int16_t *)edit_value=(int16_t)args[0];
 467              		.loc 1 44 11 view .LVU90
 468 0068 60B1     		cbz	r0, .L36
  45:Src/myfunc.c  ****     uprintf("ok set %s = %d\r\n",s[0],*(int16_t *)edit_value);
 469              		.loc 1 45 5 is_stmt 1 view .LVU91
  45:Src/myfunc.c  ****     uprintf("ok set %s = %d\r\n",s[0],*(int16_t *)edit_value);
 470              		.loc 1 45 41 is_stmt 0 view .LVU92
 471 006a D7ED007A 		vldr.32	s15, [r7]
  45:Src/myfunc.c  ****     uprintf("ok set %s = %d\r\n",s[0],*(int16_t *)edit_value);
 472              		.loc 1 45 28 view .LVU93
 473 006e FDEEE77A 		vcvt.s32.f32	s15, s15
 474 0072 17EE903A 		vmov	r3, s15	@ int
 475 0076 1AB2     		sxth	r2, r3
  45:Src/myfunc.c  ****     uprintf("ok set %s = %d\r\n",s[0],*(int16_t *)edit_value);
 476              		.loc 1 45 27 view .LVU94
 477 0078 3280     		strh	r2, [r6]	@ movhi
  46:Src/myfunc.c  ****   }else if(compare_string(s[1],"f")){
 478              		.loc 1 46 5 is_stmt 1 view .LVU95
 479 007a 2968     		ldr	r1, [r5]
 480 007c 0D48     		ldr	r0, .L41+12
 481 007e FFF7FEFF 		bl	uprintf
 482              	.LVL42:
 483 0082 EBE7     		b	.L29
ARM GAS  C:\Users\ncer\AppData\Local\Temp\ccj0JV7h.s 			page 13


 484              	.L36:
  47:Src/myfunc.c  ****     *(float *)edit_value=args[0];
 485              		.loc 1 47 9 view .LVU96
  47:Src/myfunc.c  ****     *(float *)edit_value=args[0];
 486              		.loc 1 47 12 is_stmt 0 view .LVU97
 487 0084 0D49     		ldr	r1, .L41+20
 488 0086 6868     		ldr	r0, [r5, #4]
 489 0088 FFF7FEFF 		bl	compare_string
 490              	.LVL43:
  47:Src/myfunc.c  ****     *(float *)edit_value=args[0];
 491              		.loc 1 47 11 view .LVU98
 492 008c 0028     		cmp	r0, #0
 493 008e E5D0     		beq	.L29
  48:Src/myfunc.c  ****     uprintf("ok set %s = %f\r\n",s[0],*(float *)edit_value);
 494              		.loc 1 48 5 is_stmt 1 view .LVU99
  48:Src/myfunc.c  ****     uprintf("ok set %s = %f\r\n",s[0],*(float *)edit_value);
 495              		.loc 1 48 30 is_stmt 0 view .LVU100
 496 0090 3868     		ldr	r0, [r7]	@ float
  48:Src/myfunc.c  ****     uprintf("ok set %s = %f\r\n",s[0],*(float *)edit_value);
 497              		.loc 1 48 25 view .LVU101
 498 0092 3060     		str	r0, [r6]	@ float
  49:Src/myfunc.c  ****   }
 499              		.loc 1 49 5 is_stmt 1 view .LVU102
 500 0094 FFF7FEFF 		bl	__aeabi_f2d
 501              	.LVL44:
 502 0098 0246     		mov	r2, r0
 503 009a 0B46     		mov	r3, r1
 504 009c 2968     		ldr	r1, [r5]
 505 009e 0848     		ldr	r0, .L41+24
 506 00a0 FFF7FEFF 		bl	uprintf
 507              	.LVL45:
 508 00a4 DAE7     		b	.L29
 509              	.L42:
 510 00a6 00BF     		.align	2
 511              	.L41:
 512 00a8 00000000 		.word	.LANCHOR0
 513 00ac 00000000 		.word	.LC6
 514 00b0 14000000 		.word	.LC7
 515 00b4 18000000 		.word	.LC8
 516 00b8 2C000000 		.word	.LC9
 517 00bc 30000000 		.word	.LC10
 518 00c0 34000000 		.word	.LC11
 519              		.cfi_endproc
 520              	.LFE134:
 522              		.section	.rodata.command_init.str1.4,"aMS",%progbits,1
 523              		.align	2
 524              	.LC12:
 525 0000 74657374 		.ascii	"test\000"
 525      00
 526 0005 000000   		.align	2
 527              	.LC13:
 528 0008 7365745F 		.ascii	"set_u4\000"
 528      753400
 529 000f 00       		.align	2
 530              	.LC14:
 531 0010 6765745F 		.ascii	"get_p\000"
 531      7000
ARM GAS  C:\Users\ncer\AppData\Local\Temp\ccj0JV7h.s 			page 14


 532 0016 0000     		.align	2
 533              	.LC15:
 534 0018 74657374 		.ascii	"test_direction\000"
 534      5F646972 
 534      65637469 
 534      6F6E00
 535 0027 00       		.align	2
 536              	.LC16:
 537 0028 6D656173 		.ascii	"measure_r\000"
 537      7572655F 
 537      7200
 538              		.section	.text.command_init,"ax",%progbits
 539              		.align	1
 540              		.global	command_init
 541              		.syntax unified
 542              		.thumb
 543              		.thumb_func
 544              		.fpu fpv4-sp-d16
 546              	command_init:
 547              	.LFB139:
  97:Src/myfunc.c  **** 
  98:Src/myfunc.c  **** /*
  99:Src/myfunc.c  **** 将要增加的命令与函数写在这里
 100:Src/myfunc.c  **** */
 101:Src/myfunc.c  **** void command_init(void){
 548              		.loc 1 101 24 view -0
 549              		.cfi_startproc
 550              		@ args = 0, pretend = 0, frame = 0
 551              		@ frame_needed = 0, uses_anonymous_args = 0
 552 0000 08B5     		push	{r3, lr}
 553              	.LCFI9:
 554              		.cfi_def_cfa_offset 8
 555              		.cfi_offset 3, -8
 556              		.cfi_offset 14, -4
 102:Src/myfunc.c  ****   add_cmd("test",test);  
 557              		.loc 1 102 3 view .LVU104
 558 0002 0A49     		ldr	r1, .L45
 559 0004 0A48     		ldr	r0, .L45+4
 560 0006 FFF7FEFF 		bl	add_cmd
 561              	.LVL46:
 103:Src/myfunc.c  ****   add_cmd("set_u4",set_to_u4);
 562              		.loc 1 103 3 view .LVU105
 563 000a 0A49     		ldr	r1, .L45+8
 564 000c 0A48     		ldr	r0, .L45+12
 565 000e FFF7FEFF 		bl	add_cmd
 566              	.LVL47:
 104:Src/myfunc.c  ****   add_cmd("get_p",get_position);
 567              		.loc 1 104 3 view .LVU106
 568 0012 0A49     		ldr	r1, .L45+16
 569 0014 0A48     		ldr	r0, .L45+20
 570 0016 FFF7FEFF 		bl	add_cmd
 571              	.LVL48:
 105:Src/myfunc.c  ****   add_cmd("test_direction",test_direction);
 572              		.loc 1 105 3 view .LVU107
 573 001a 0A49     		ldr	r1, .L45+24
 574 001c 0A48     		ldr	r0, .L45+28
 575 001e FFF7FEFF 		bl	add_cmd
ARM GAS  C:\Users\ncer\AppData\Local\Temp\ccj0JV7h.s 			page 15


 576              	.LVL49:
 106:Src/myfunc.c  ****   add_cmd("measure_r",measure_r);
 577              		.loc 1 106 3 view .LVU108
 578 0022 0A49     		ldr	r1, .L45+32
 579 0024 0A48     		ldr	r0, .L45+36
 580 0026 FFF7FEFF 		bl	add_cmd
 581              	.LVL50:
 107:Src/myfunc.c  **** }
 582              		.loc 1 107 1 is_stmt 0 view .LVU109
 583 002a 08BD     		pop	{r3, pc}
 584              	.L46:
 585              		.align	2
 586              	.L45:
 587 002c 00000000 		.word	test
 588 0030 00000000 		.word	.LC12
 589 0034 00000000 		.word	set_to_u4
 590 0038 08000000 		.word	.LC13
 591 003c 00000000 		.word	get_position
 592 0040 10000000 		.word	.LC14
 593 0044 00000000 		.word	test_direction
 594 0048 18000000 		.word	.LC15
 595 004c 00000000 		.word	measure_r
 596 0050 28000000 		.word	.LC16
 597              		.cfi_endproc
 598              	.LFE139:
 600              		.global	Var_List
 601              		.section	.bss.Var_List,"aw",%nobits
 602              		.align	2
 603              		.set	.LANCHOR0,. + 0
 606              	Var_List:
 607 0000 00000000 		.space	80
 607      00000000 
 607      00000000 
 607      00000000 
 607      00000000 
 608              		.text
 609              	.Letext0:
 610              		.file 2 "c:\\arm_gcc\\arm-none-eabi\\include\\machine\\_default_types.h"
 611              		.file 3 "c:\\arm_gcc\\arm-none-eabi\\include\\sys\\_stdint.h"
 612              		.file 4 "c:\\arm_gcc\\arm-none-eabi\\include\\sys\\lock.h"
 613              		.file 5 "c:\\arm_gcc\\arm-none-eabi\\include\\sys\\_types.h"
 614              		.file 6 "c:\\arm_gcc\\lib\\gcc\\arm-none-eabi\\9.2.1\\include\\stddef.h"
 615              		.file 7 "c:\\arm_gcc\\arm-none-eabi\\include\\sys\\reent.h"
 616              		.file 8 "c:\\arm_gcc\\arm-none-eabi\\include\\stdlib.h"
 617              		.file 9 "Drivers/CMSIS/Include/core_cm4.h"
 618              		.file 10 "Drivers/CMSIS/Device/ST/STM32F4xx/Include/system_stm32f4xx.h"
 619              		.file 11 "mylib/uart_ext.h"
 620              		.file 12 "Inc/foc.h"
 621              		.file 13 "mylib/command.h"
 622              		.file 14 "Drivers/STM32F4xx_HAL_Driver/Inc/stm32f4xx_hal.h"
ARM GAS  C:\Users\ncer\AppData\Local\Temp\ccj0JV7h.s 			page 16

