ARM GAS  C:\Users\ncer\AppData\Local\Temp\cc2CcScK.s 			page 1


   1              		.cpu cortex-m4
   2              		.eabi_attribute 27, 1
   3              		.eabi_attribute 28, 1
   4              		.eabi_attribute 20, 1
   5              		.eabi_attribute 21, 1
   6              		.eabi_attribute 23, 3
   7              		.eabi_attribute 24, 1
   8              		.eabi_attribute 25, 1
   9              		.eabi_attribute 26, 1
  10              		.eabi_attribute 30, 1
  11              		.eabi_attribute 34, 1
  12              		.eabi_attribute 18, 4
  13              		.file	"stm32f4xx_it.c"
  14              		.text
  15              	.Ltext0:
  16              		.cfi_sections	.debug_frame
  17              		.section	.text.NMI_Handler,"ax",%progbits
  18              		.align	1
  19              		.global	NMI_Handler
  20              		.arch armv7e-m
  21              		.syntax unified
  22              		.thumb
  23              		.thumb_func
  24              		.fpu fpv4-sp-d16
  26              	NMI_Handler:
  27              	.LFB130:
  28              		.file 1 "Src/stm32f4xx_it.c"
   1:Src/stm32f4xx_it.c **** /* USER CODE BEGIN Header */
   2:Src/stm32f4xx_it.c **** /**
   3:Src/stm32f4xx_it.c ****   ******************************************************************************
   4:Src/stm32f4xx_it.c ****   * @file    stm32f4xx_it.c
   5:Src/stm32f4xx_it.c ****   * @brief   Interrupt Service Routines.
   6:Src/stm32f4xx_it.c ****   ******************************************************************************
   7:Src/stm32f4xx_it.c ****   * @attention
   8:Src/stm32f4xx_it.c ****   *
   9:Src/stm32f4xx_it.c ****   * <h2><center>&copy; Copyright (c) 2019 STMicroelectronics.
  10:Src/stm32f4xx_it.c ****   * All rights reserved.</center></h2>
  11:Src/stm32f4xx_it.c ****   *
  12:Src/stm32f4xx_it.c ****   * This software component is licensed by ST under BSD 3-Clause license,
  13:Src/stm32f4xx_it.c ****   * the "License"; You may not use this file except in compliance with the
  14:Src/stm32f4xx_it.c ****   * License. You may obtain a copy of the License at:
  15:Src/stm32f4xx_it.c ****   *                        opensource.org/licenses/BSD-3-Clause
  16:Src/stm32f4xx_it.c ****   *
  17:Src/stm32f4xx_it.c ****   ******************************************************************************
  18:Src/stm32f4xx_it.c ****   */
  19:Src/stm32f4xx_it.c **** /* USER CODE END Header */
  20:Src/stm32f4xx_it.c **** 
  21:Src/stm32f4xx_it.c **** /* Includes ------------------------------------------------------------------*/
  22:Src/stm32f4xx_it.c **** #include "main.h"
  23:Src/stm32f4xx_it.c **** #include "stm32f4xx_it.h"
  24:Src/stm32f4xx_it.c **** /* Private includes ----------------------------------------------------------*/
  25:Src/stm32f4xx_it.c **** /* USER CODE BEGIN Includes */
  26:Src/stm32f4xx_it.c **** /* USER CODE END Includes */
  27:Src/stm32f4xx_it.c **** 
  28:Src/stm32f4xx_it.c **** /* Private typedef -----------------------------------------------------------*/
  29:Src/stm32f4xx_it.c **** /* USER CODE BEGIN TD */
  30:Src/stm32f4xx_it.c **** 
ARM GAS  C:\Users\ncer\AppData\Local\Temp\cc2CcScK.s 			page 2


  31:Src/stm32f4xx_it.c **** /* USER CODE END TD */
  32:Src/stm32f4xx_it.c **** 
  33:Src/stm32f4xx_it.c **** /* Private define ------------------------------------------------------------*/
  34:Src/stm32f4xx_it.c **** /* USER CODE BEGIN PD */
  35:Src/stm32f4xx_it.c ****  
  36:Src/stm32f4xx_it.c **** /* USER CODE END PD */
  37:Src/stm32f4xx_it.c **** 
  38:Src/stm32f4xx_it.c **** /* Private macro -------------------------------------------------------------*/
  39:Src/stm32f4xx_it.c **** /* USER CODE BEGIN PM */
  40:Src/stm32f4xx_it.c **** 
  41:Src/stm32f4xx_it.c **** /* USER CODE END PM */
  42:Src/stm32f4xx_it.c **** 
  43:Src/stm32f4xx_it.c **** /* Private variables ---------------------------------------------------------*/
  44:Src/stm32f4xx_it.c **** /* USER CODE BEGIN PV */
  45:Src/stm32f4xx_it.c **** 
  46:Src/stm32f4xx_it.c **** /* USER CODE END PV */
  47:Src/stm32f4xx_it.c **** 
  48:Src/stm32f4xx_it.c **** /* Private function prototypes -----------------------------------------------*/
  49:Src/stm32f4xx_it.c **** /* USER CODE BEGIN PFP */
  50:Src/stm32f4xx_it.c **** 
  51:Src/stm32f4xx_it.c **** /* USER CODE END PFP */
  52:Src/stm32f4xx_it.c **** 
  53:Src/stm32f4xx_it.c **** /* Private user code ---------------------------------------------------------*/
  54:Src/stm32f4xx_it.c **** /* USER CODE BEGIN 0 */
  55:Src/stm32f4xx_it.c **** 
  56:Src/stm32f4xx_it.c **** /* USER CODE END 0 */
  57:Src/stm32f4xx_it.c **** 
  58:Src/stm32f4xx_it.c **** /* External variables --------------------------------------------------------*/
  59:Src/stm32f4xx_it.c **** extern DMA_HandleTypeDef hdma_adc1;
  60:Src/stm32f4xx_it.c **** extern DMA_HandleTypeDef hdma_adc2;
  61:Src/stm32f4xx_it.c **** extern TIM_HandleTypeDef htim6;
  62:Src/stm32f4xx_it.c **** extern TIM_HandleTypeDef htim7;
  63:Src/stm32f4xx_it.c **** extern TIM_HandleTypeDef htim8;
  64:Src/stm32f4xx_it.c **** extern DMA_HandleTypeDef hdma_usart3_rx;
  65:Src/stm32f4xx_it.c **** extern DMA_HandleTypeDef hdma_usart3_tx;
  66:Src/stm32f4xx_it.c **** /* USER CODE BEGIN EV */
  67:Src/stm32f4xx_it.c **** 
  68:Src/stm32f4xx_it.c **** /* USER CODE END EV */
  69:Src/stm32f4xx_it.c **** 
  70:Src/stm32f4xx_it.c **** /******************************************************************************/
  71:Src/stm32f4xx_it.c **** /*           Cortex-M4 Processor Interruption and Exception Handlers          */ 
  72:Src/stm32f4xx_it.c **** /******************************************************************************/
  73:Src/stm32f4xx_it.c **** /**
  74:Src/stm32f4xx_it.c ****   * @brief This function handles Non maskable interrupt.
  75:Src/stm32f4xx_it.c ****   */
  76:Src/stm32f4xx_it.c **** void NMI_Handler(void)
  77:Src/stm32f4xx_it.c **** {
  29              		.loc 1 77 1 view -0
  30              		.cfi_startproc
  31              		@ args = 0, pretend = 0, frame = 0
  32              		@ frame_needed = 0, uses_anonymous_args = 0
  33              		@ link register save eliminated.
  78:Src/stm32f4xx_it.c ****   /* USER CODE BEGIN NonMaskableInt_IRQn 0 */
  79:Src/stm32f4xx_it.c **** 
  80:Src/stm32f4xx_it.c ****   /* USER CODE END NonMaskableInt_IRQn 0 */
  81:Src/stm32f4xx_it.c ****   /* USER CODE BEGIN NonMaskableInt_IRQn 1 */
  82:Src/stm32f4xx_it.c **** 
ARM GAS  C:\Users\ncer\AppData\Local\Temp\cc2CcScK.s 			page 3


  83:Src/stm32f4xx_it.c ****   /* USER CODE END NonMaskableInt_IRQn 1 */
  84:Src/stm32f4xx_it.c **** }
  34              		.loc 1 84 1 view .LVU1
  35 0000 7047     		bx	lr
  36              		.cfi_endproc
  37              	.LFE130:
  39              		.section	.text.HardFault_Handler,"ax",%progbits
  40              		.align	1
  41              		.global	HardFault_Handler
  42              		.syntax unified
  43              		.thumb
  44              		.thumb_func
  45              		.fpu fpv4-sp-d16
  47              	HardFault_Handler:
  48              	.LFB131:
  85:Src/stm32f4xx_it.c **** 
  86:Src/stm32f4xx_it.c **** /**
  87:Src/stm32f4xx_it.c ****   * @brief This function handles Hard fault interrupt.
  88:Src/stm32f4xx_it.c ****   */
  89:Src/stm32f4xx_it.c **** void HardFault_Handler(void)
  90:Src/stm32f4xx_it.c **** {
  49              		.loc 1 90 1 view -0
  50              		.cfi_startproc
  51              		@ Volatile: function does not return.
  52              		@ args = 0, pretend = 0, frame = 0
  53              		@ frame_needed = 0, uses_anonymous_args = 0
  54              		@ link register save eliminated.
  55              	.L3:
  91:Src/stm32f4xx_it.c ****   /* USER CODE BEGIN HardFault_IRQn 0 */
  92:Src/stm32f4xx_it.c **** 
  93:Src/stm32f4xx_it.c ****   /* USER CODE END HardFault_IRQn 0 */
  94:Src/stm32f4xx_it.c ****   while (1)
  56              		.loc 1 94 3 discriminator 1 view .LVU3
  95:Src/stm32f4xx_it.c ****   {
  96:Src/stm32f4xx_it.c ****     /* USER CODE BEGIN W1_HardFault_IRQn 0 */
  97:Src/stm32f4xx_it.c ****     /* USER CODE END W1_HardFault_IRQn 0 */
  98:Src/stm32f4xx_it.c ****   }
  57              		.loc 1 98 3 discriminator 1 view .LVU4
  58 0000 FEE7     		b	.L3
  59              		.cfi_endproc
  60              	.LFE131:
  62              		.section	.text.MemManage_Handler,"ax",%progbits
  63              		.align	1
  64              		.global	MemManage_Handler
  65              		.syntax unified
  66              		.thumb
  67              		.thumb_func
  68              		.fpu fpv4-sp-d16
  70              	MemManage_Handler:
  71              	.LFB132:
  99:Src/stm32f4xx_it.c **** }
 100:Src/stm32f4xx_it.c **** 
 101:Src/stm32f4xx_it.c **** /**
 102:Src/stm32f4xx_it.c ****   * @brief This function handles Memory management fault.
 103:Src/stm32f4xx_it.c ****   */
 104:Src/stm32f4xx_it.c **** void MemManage_Handler(void)
 105:Src/stm32f4xx_it.c **** {
ARM GAS  C:\Users\ncer\AppData\Local\Temp\cc2CcScK.s 			page 4


  72              		.loc 1 105 1 view -0
  73              		.cfi_startproc
  74              		@ Volatile: function does not return.
  75              		@ args = 0, pretend = 0, frame = 0
  76              		@ frame_needed = 0, uses_anonymous_args = 0
  77              		@ link register save eliminated.
  78              	.L5:
 106:Src/stm32f4xx_it.c ****   /* USER CODE BEGIN MemoryManagement_IRQn 0 */
 107:Src/stm32f4xx_it.c **** 
 108:Src/stm32f4xx_it.c ****   /* USER CODE END MemoryManagement_IRQn 0 */
 109:Src/stm32f4xx_it.c ****   while (1)
  79              		.loc 1 109 3 discriminator 1 view .LVU6
 110:Src/stm32f4xx_it.c ****   {
 111:Src/stm32f4xx_it.c ****     /* USER CODE BEGIN W1_MemoryManagement_IRQn 0 */
 112:Src/stm32f4xx_it.c ****     /* USER CODE END W1_MemoryManagement_IRQn 0 */
 113:Src/stm32f4xx_it.c ****   }
  80              		.loc 1 113 3 discriminator 1 view .LVU7
  81 0000 FEE7     		b	.L5
  82              		.cfi_endproc
  83              	.LFE132:
  85              		.section	.text.BusFault_Handler,"ax",%progbits
  86              		.align	1
  87              		.global	BusFault_Handler
  88              		.syntax unified
  89              		.thumb
  90              		.thumb_func
  91              		.fpu fpv4-sp-d16
  93              	BusFault_Handler:
  94              	.LFB133:
 114:Src/stm32f4xx_it.c **** }
 115:Src/stm32f4xx_it.c **** 
 116:Src/stm32f4xx_it.c **** /**
 117:Src/stm32f4xx_it.c ****   * @brief This function handles Pre-fetch fault, memory access fault.
 118:Src/stm32f4xx_it.c ****   */
 119:Src/stm32f4xx_it.c **** void BusFault_Handler(void)
 120:Src/stm32f4xx_it.c **** {
  95              		.loc 1 120 1 view -0
  96              		.cfi_startproc
  97              		@ Volatile: function does not return.
  98              		@ args = 0, pretend = 0, frame = 0
  99              		@ frame_needed = 0, uses_anonymous_args = 0
 100              		@ link register save eliminated.
 101              	.L7:
 121:Src/stm32f4xx_it.c ****   /* USER CODE BEGIN BusFault_IRQn 0 */
 122:Src/stm32f4xx_it.c **** 
 123:Src/stm32f4xx_it.c ****   /* USER CODE END BusFault_IRQn 0 */
 124:Src/stm32f4xx_it.c ****   while (1)
 102              		.loc 1 124 3 discriminator 1 view .LVU9
 125:Src/stm32f4xx_it.c ****   {
 126:Src/stm32f4xx_it.c ****     /* USER CODE BEGIN W1_BusFault_IRQn 0 */
 127:Src/stm32f4xx_it.c ****     /* USER CODE END W1_BusFault_IRQn 0 */
 128:Src/stm32f4xx_it.c ****   }
 103              		.loc 1 128 3 discriminator 1 view .LVU10
 104 0000 FEE7     		b	.L7
 105              		.cfi_endproc
 106              	.LFE133:
 108              		.section	.text.UsageFault_Handler,"ax",%progbits
ARM GAS  C:\Users\ncer\AppData\Local\Temp\cc2CcScK.s 			page 5


 109              		.align	1
 110              		.global	UsageFault_Handler
 111              		.syntax unified
 112              		.thumb
 113              		.thumb_func
 114              		.fpu fpv4-sp-d16
 116              	UsageFault_Handler:
 117              	.LFB134:
 129:Src/stm32f4xx_it.c **** }
 130:Src/stm32f4xx_it.c **** 
 131:Src/stm32f4xx_it.c **** /**
 132:Src/stm32f4xx_it.c ****   * @brief This function handles Undefined instruction or illegal state.
 133:Src/stm32f4xx_it.c ****   */
 134:Src/stm32f4xx_it.c **** void UsageFault_Handler(void)
 135:Src/stm32f4xx_it.c **** {
 118              		.loc 1 135 1 view -0
 119              		.cfi_startproc
 120              		@ Volatile: function does not return.
 121              		@ args = 0, pretend = 0, frame = 0
 122              		@ frame_needed = 0, uses_anonymous_args = 0
 123              		@ link register save eliminated.
 124              	.L9:
 136:Src/stm32f4xx_it.c ****   /* USER CODE BEGIN UsageFault_IRQn 0 */
 137:Src/stm32f4xx_it.c **** 
 138:Src/stm32f4xx_it.c ****   /* USER CODE END UsageFault_IRQn 0 */
 139:Src/stm32f4xx_it.c ****   while (1)
 125              		.loc 1 139 3 discriminator 1 view .LVU12
 140:Src/stm32f4xx_it.c ****   {
 141:Src/stm32f4xx_it.c ****     /* USER CODE BEGIN W1_UsageFault_IRQn 0 */
 142:Src/stm32f4xx_it.c ****     /* USER CODE END W1_UsageFault_IRQn 0 */
 143:Src/stm32f4xx_it.c ****   }
 126              		.loc 1 143 3 discriminator 1 view .LVU13
 127 0000 FEE7     		b	.L9
 128              		.cfi_endproc
 129              	.LFE134:
 131              		.section	.text.SVC_Handler,"ax",%progbits
 132              		.align	1
 133              		.global	SVC_Handler
 134              		.syntax unified
 135              		.thumb
 136              		.thumb_func
 137              		.fpu fpv4-sp-d16
 139              	SVC_Handler:
 140              	.LFB135:
 144:Src/stm32f4xx_it.c **** }
 145:Src/stm32f4xx_it.c **** 
 146:Src/stm32f4xx_it.c **** /**
 147:Src/stm32f4xx_it.c ****   * @brief This function handles System service call via SWI instruction.
 148:Src/stm32f4xx_it.c ****   */
 149:Src/stm32f4xx_it.c **** void SVC_Handler(void)
 150:Src/stm32f4xx_it.c **** {
 141              		.loc 1 150 1 view -0
 142              		.cfi_startproc
 143              		@ args = 0, pretend = 0, frame = 0
 144              		@ frame_needed = 0, uses_anonymous_args = 0
 145              		@ link register save eliminated.
 151:Src/stm32f4xx_it.c ****   /* USER CODE BEGIN SVCall_IRQn 0 */
ARM GAS  C:\Users\ncer\AppData\Local\Temp\cc2CcScK.s 			page 6


 152:Src/stm32f4xx_it.c **** 
 153:Src/stm32f4xx_it.c ****   /* USER CODE END SVCall_IRQn 0 */
 154:Src/stm32f4xx_it.c ****   /* USER CODE BEGIN SVCall_IRQn 1 */
 155:Src/stm32f4xx_it.c **** 
 156:Src/stm32f4xx_it.c ****   /* USER CODE END SVCall_IRQn 1 */
 157:Src/stm32f4xx_it.c **** }
 146              		.loc 1 157 1 view .LVU15
 147 0000 7047     		bx	lr
 148              		.cfi_endproc
 149              	.LFE135:
 151              		.section	.text.DebugMon_Handler,"ax",%progbits
 152              		.align	1
 153              		.global	DebugMon_Handler
 154              		.syntax unified
 155              		.thumb
 156              		.thumb_func
 157              		.fpu fpv4-sp-d16
 159              	DebugMon_Handler:
 160              	.LFB136:
 158:Src/stm32f4xx_it.c **** 
 159:Src/stm32f4xx_it.c **** /**
 160:Src/stm32f4xx_it.c ****   * @brief This function handles Debug monitor.
 161:Src/stm32f4xx_it.c ****   */
 162:Src/stm32f4xx_it.c **** void DebugMon_Handler(void)
 163:Src/stm32f4xx_it.c **** {
 161              		.loc 1 163 1 view -0
 162              		.cfi_startproc
 163              		@ args = 0, pretend = 0, frame = 0
 164              		@ frame_needed = 0, uses_anonymous_args = 0
 165              		@ link register save eliminated.
 164:Src/stm32f4xx_it.c ****   /* USER CODE BEGIN DebugMonitor_IRQn 0 */
 165:Src/stm32f4xx_it.c **** 
 166:Src/stm32f4xx_it.c ****   /* USER CODE END DebugMonitor_IRQn 0 */
 167:Src/stm32f4xx_it.c ****   /* USER CODE BEGIN DebugMonitor_IRQn 1 */
 168:Src/stm32f4xx_it.c **** 
 169:Src/stm32f4xx_it.c ****   /* USER CODE END DebugMonitor_IRQn 1 */
 170:Src/stm32f4xx_it.c **** }
 166              		.loc 1 170 1 view .LVU17
 167 0000 7047     		bx	lr
 168              		.cfi_endproc
 169              	.LFE136:
 171              		.section	.text.PendSV_Handler,"ax",%progbits
 172              		.align	1
 173              		.global	PendSV_Handler
 174              		.syntax unified
 175              		.thumb
 176              		.thumb_func
 177              		.fpu fpv4-sp-d16
 179              	PendSV_Handler:
 180              	.LFB137:
 171:Src/stm32f4xx_it.c **** 
 172:Src/stm32f4xx_it.c **** /**
 173:Src/stm32f4xx_it.c ****   * @brief This function handles Pendable request for system service.
 174:Src/stm32f4xx_it.c ****   */
 175:Src/stm32f4xx_it.c **** void PendSV_Handler(void)
 176:Src/stm32f4xx_it.c **** {
 181              		.loc 1 176 1 view -0
ARM GAS  C:\Users\ncer\AppData\Local\Temp\cc2CcScK.s 			page 7


 182              		.cfi_startproc
 183              		@ args = 0, pretend = 0, frame = 0
 184              		@ frame_needed = 0, uses_anonymous_args = 0
 185              		@ link register save eliminated.
 177:Src/stm32f4xx_it.c ****   /* USER CODE BEGIN PendSV_IRQn 0 */
 178:Src/stm32f4xx_it.c **** 
 179:Src/stm32f4xx_it.c ****   /* USER CODE END PendSV_IRQn 0 */
 180:Src/stm32f4xx_it.c ****   /* USER CODE BEGIN PendSV_IRQn 1 */
 181:Src/stm32f4xx_it.c **** 
 182:Src/stm32f4xx_it.c ****   /* USER CODE END PendSV_IRQn 1 */
 183:Src/stm32f4xx_it.c **** }
 186              		.loc 1 183 1 view .LVU19
 187 0000 7047     		bx	lr
 188              		.cfi_endproc
 189              	.LFE137:
 191              		.section	.text.SysTick_Handler,"ax",%progbits
 192              		.align	1
 193              		.global	SysTick_Handler
 194              		.syntax unified
 195              		.thumb
 196              		.thumb_func
 197              		.fpu fpv4-sp-d16
 199              	SysTick_Handler:
 200              	.LFB138:
 184:Src/stm32f4xx_it.c **** 
 185:Src/stm32f4xx_it.c **** /**
 186:Src/stm32f4xx_it.c ****   * @brief This function handles System tick timer.
 187:Src/stm32f4xx_it.c ****   */
 188:Src/stm32f4xx_it.c **** void SysTick_Handler(void)
 189:Src/stm32f4xx_it.c **** {
 201              		.loc 1 189 1 view -0
 202              		.cfi_startproc
 203              		@ args = 0, pretend = 0, frame = 0
 204              		@ frame_needed = 0, uses_anonymous_args = 0
 205 0000 08B5     		push	{r3, lr}
 206              	.LCFI0:
 207              		.cfi_def_cfa_offset 8
 208              		.cfi_offset 3, -8
 209              		.cfi_offset 14, -4
 190:Src/stm32f4xx_it.c ****   /* USER CODE BEGIN SysTick_IRQn 0 */
 191:Src/stm32f4xx_it.c **** 
 192:Src/stm32f4xx_it.c ****   /* USER CODE END SysTick_IRQn 0 */
 193:Src/stm32f4xx_it.c ****   HAL_IncTick();
 210              		.loc 1 193 3 view .LVU21
 211 0002 FFF7FEFF 		bl	HAL_IncTick
 212              	.LVL0:
 194:Src/stm32f4xx_it.c ****   /* USER CODE BEGIN SysTick_IRQn 1 */
 195:Src/stm32f4xx_it.c ****   MS_IRQ_Handler();
 213              		.loc 1 195 3 view .LVU22
 214 0006 FFF7FEFF 		bl	MS_IRQ_Handler
 215              	.LVL1:
 196:Src/stm32f4xx_it.c ****   /* USER CODE END SysTick_IRQn 1 */
 197:Src/stm32f4xx_it.c **** }
 216              		.loc 1 197 1 is_stmt 0 view .LVU23
 217 000a 08BD     		pop	{r3, pc}
 218              		.cfi_endproc
 219              	.LFE138:
ARM GAS  C:\Users\ncer\AppData\Local\Temp\cc2CcScK.s 			page 8


 221              		.section	.text.DMA1_Stream1_IRQHandler,"ax",%progbits
 222              		.align	1
 223              		.global	DMA1_Stream1_IRQHandler
 224              		.syntax unified
 225              		.thumb
 226              		.thumb_func
 227              		.fpu fpv4-sp-d16
 229              	DMA1_Stream1_IRQHandler:
 230              	.LFB139:
 198:Src/stm32f4xx_it.c **** 
 199:Src/stm32f4xx_it.c **** /******************************************************************************/
 200:Src/stm32f4xx_it.c **** /* STM32F4xx Peripheral Interrupt Handlers                                    */
 201:Src/stm32f4xx_it.c **** /* Add here the Interrupt Handlers for the used peripherals.                  */
 202:Src/stm32f4xx_it.c **** /* For the available peripheral interrupt handler names,                      */
 203:Src/stm32f4xx_it.c **** /* please refer to the startup file (startup_stm32f4xx.s).                    */
 204:Src/stm32f4xx_it.c **** /******************************************************************************/
 205:Src/stm32f4xx_it.c **** 
 206:Src/stm32f4xx_it.c **** /**
 207:Src/stm32f4xx_it.c ****   * @brief This function handles DMA1 stream1 global interrupt.
 208:Src/stm32f4xx_it.c ****   */
 209:Src/stm32f4xx_it.c **** void DMA1_Stream1_IRQHandler(void)
 210:Src/stm32f4xx_it.c **** {
 231              		.loc 1 210 1 is_stmt 1 view -0
 232              		.cfi_startproc
 233              		@ args = 0, pretend = 0, frame = 0
 234              		@ frame_needed = 0, uses_anonymous_args = 0
 235 0000 08B5     		push	{r3, lr}
 236              	.LCFI1:
 237              		.cfi_def_cfa_offset 8
 238              		.cfi_offset 3, -8
 239              		.cfi_offset 14, -4
 211:Src/stm32f4xx_it.c ****   /* USER CODE BEGIN DMA1_Stream1_IRQn 0 */
 212:Src/stm32f4xx_it.c **** 
 213:Src/stm32f4xx_it.c ****   /* USER CODE END DMA1_Stream1_IRQn 0 */
 214:Src/stm32f4xx_it.c ****   HAL_DMA_IRQHandler(&hdma_usart3_rx);
 240              		.loc 1 214 3 view .LVU25
 241 0002 0248     		ldr	r0, .L17
 242 0004 FFF7FEFF 		bl	HAL_DMA_IRQHandler
 243              	.LVL2:
 215:Src/stm32f4xx_it.c ****   /* USER CODE BEGIN DMA1_Stream1_IRQn 1 */
 216:Src/stm32f4xx_it.c **** 
 217:Src/stm32f4xx_it.c ****   /* USER CODE END DMA1_Stream1_IRQn 1 */
 218:Src/stm32f4xx_it.c **** }
 244              		.loc 1 218 1 is_stmt 0 view .LVU26
 245 0008 08BD     		pop	{r3, pc}
 246              	.L18:
 247 000a 00BF     		.align	2
 248              	.L17:
 249 000c 00000000 		.word	hdma_usart3_rx
 250              		.cfi_endproc
 251              	.LFE139:
 253              		.section	.text.DMA1_Stream3_IRQHandler,"ax",%progbits
 254              		.align	1
 255              		.global	DMA1_Stream3_IRQHandler
 256              		.syntax unified
 257              		.thumb
 258              		.thumb_func
ARM GAS  C:\Users\ncer\AppData\Local\Temp\cc2CcScK.s 			page 9


 259              		.fpu fpv4-sp-d16
 261              	DMA1_Stream3_IRQHandler:
 262              	.LFB140:
 219:Src/stm32f4xx_it.c **** 
 220:Src/stm32f4xx_it.c **** /**
 221:Src/stm32f4xx_it.c ****   * @brief This function handles DMA1 stream3 global interrupt.
 222:Src/stm32f4xx_it.c ****   */
 223:Src/stm32f4xx_it.c **** void DMA1_Stream3_IRQHandler(void)
 224:Src/stm32f4xx_it.c **** {
 263              		.loc 1 224 1 is_stmt 1 view -0
 264              		.cfi_startproc
 265              		@ args = 0, pretend = 0, frame = 0
 266              		@ frame_needed = 0, uses_anonymous_args = 0
 267 0000 08B5     		push	{r3, lr}
 268              	.LCFI2:
 269              		.cfi_def_cfa_offset 8
 270              		.cfi_offset 3, -8
 271              		.cfi_offset 14, -4
 225:Src/stm32f4xx_it.c ****   /* USER CODE BEGIN DMA1_Stream3_IRQn 0 */
 226:Src/stm32f4xx_it.c **** 
 227:Src/stm32f4xx_it.c ****   /* USER CODE END DMA1_Stream3_IRQn 0 */
 228:Src/stm32f4xx_it.c ****   HAL_DMA_IRQHandler(&hdma_usart3_tx);
 272              		.loc 1 228 3 view .LVU28
 273 0002 0248     		ldr	r0, .L21
 274 0004 FFF7FEFF 		bl	HAL_DMA_IRQHandler
 275              	.LVL3:
 229:Src/stm32f4xx_it.c ****   /* USER CODE BEGIN DMA1_Stream3_IRQn 1 */
 230:Src/stm32f4xx_it.c **** 
 231:Src/stm32f4xx_it.c ****   /* USER CODE END DMA1_Stream3_IRQn 1 */
 232:Src/stm32f4xx_it.c **** }
 276              		.loc 1 232 1 is_stmt 0 view .LVU29
 277 0008 08BD     		pop	{r3, pc}
 278              	.L22:
 279 000a 00BF     		.align	2
 280              	.L21:
 281 000c 00000000 		.word	hdma_usart3_tx
 282              		.cfi_endproc
 283              	.LFE140:
 285              		.section	.text.TIM8_UP_TIM13_IRQHandler,"ax",%progbits
 286              		.align	1
 287              		.global	TIM8_UP_TIM13_IRQHandler
 288              		.syntax unified
 289              		.thumb
 290              		.thumb_func
 291              		.fpu fpv4-sp-d16
 293              	TIM8_UP_TIM13_IRQHandler:
 294              	.LFB141:
 233:Src/stm32f4xx_it.c **** 
 234:Src/stm32f4xx_it.c **** /**
 235:Src/stm32f4xx_it.c ****   * @brief This function handles TIM8 update interrupt and TIM13 global interrupt.
 236:Src/stm32f4xx_it.c ****   */
 237:Src/stm32f4xx_it.c **** void TIM8_UP_TIM13_IRQHandler(void)
 238:Src/stm32f4xx_it.c **** {
 295              		.loc 1 238 1 is_stmt 1 view -0
 296              		.cfi_startproc
 297              		@ args = 0, pretend = 0, frame = 0
 298              		@ frame_needed = 0, uses_anonymous_args = 0
ARM GAS  C:\Users\ncer\AppData\Local\Temp\cc2CcScK.s 			page 10


 299 0000 08B5     		push	{r3, lr}
 300              	.LCFI3:
 301              		.cfi_def_cfa_offset 8
 302              		.cfi_offset 3, -8
 303              		.cfi_offset 14, -4
 239:Src/stm32f4xx_it.c ****   /* USER CODE BEGIN TIM8_UP_TIM13_IRQn 0 */
 240:Src/stm32f4xx_it.c **** 
 241:Src/stm32f4xx_it.c ****   /* USER CODE END TIM8_UP_TIM13_IRQn 0 */
 242:Src/stm32f4xx_it.c ****   HAL_TIM_IRQHandler(&htim8);
 304              		.loc 1 242 3 view .LVU31
 305 0002 0248     		ldr	r0, .L25
 306 0004 FFF7FEFF 		bl	HAL_TIM_IRQHandler
 307              	.LVL4:
 243:Src/stm32f4xx_it.c ****   /* USER CODE BEGIN TIM8_UP_TIM13_IRQn 1 */
 244:Src/stm32f4xx_it.c **** 
 245:Src/stm32f4xx_it.c ****   /* USER CODE END TIM8_UP_TIM13_IRQn 1 */
 246:Src/stm32f4xx_it.c **** }
 308              		.loc 1 246 1 is_stmt 0 view .LVU32
 309 0008 08BD     		pop	{r3, pc}
 310              	.L26:
 311 000a 00BF     		.align	2
 312              	.L25:
 313 000c 00000000 		.word	htim8
 314              		.cfi_endproc
 315              	.LFE141:
 317              		.section	.text.TIM6_DAC_IRQHandler,"ax",%progbits
 318              		.align	1
 319              		.global	TIM6_DAC_IRQHandler
 320              		.syntax unified
 321              		.thumb
 322              		.thumb_func
 323              		.fpu fpv4-sp-d16
 325              	TIM6_DAC_IRQHandler:
 326              	.LFB142:
 247:Src/stm32f4xx_it.c **** 
 248:Src/stm32f4xx_it.c **** /**
 249:Src/stm32f4xx_it.c ****   * @brief This function handles TIM6 global interrupt, DAC1 and DAC2 underrun error interrupts.
 250:Src/stm32f4xx_it.c ****   */
 251:Src/stm32f4xx_it.c **** void TIM6_DAC_IRQHandler(void)
 252:Src/stm32f4xx_it.c **** {
 327              		.loc 1 252 1 is_stmt 1 view -0
 328              		.cfi_startproc
 329              		@ args = 0, pretend = 0, frame = 0
 330              		@ frame_needed = 0, uses_anonymous_args = 0
 331 0000 08B5     		push	{r3, lr}
 332              	.LCFI4:
 333              		.cfi_def_cfa_offset 8
 334              		.cfi_offset 3, -8
 335              		.cfi_offset 14, -4
 253:Src/stm32f4xx_it.c ****   /* USER CODE BEGIN TIM6_DAC_IRQn 0 */
 254:Src/stm32f4xx_it.c **** 
 255:Src/stm32f4xx_it.c ****   /* USER CODE END TIM6_DAC_IRQn 0 */
 256:Src/stm32f4xx_it.c ****   HAL_TIM_IRQHandler(&htim6);
 336              		.loc 1 256 3 view .LVU34
 337 0002 0248     		ldr	r0, .L29
 338 0004 FFF7FEFF 		bl	HAL_TIM_IRQHandler
 339              	.LVL5:
ARM GAS  C:\Users\ncer\AppData\Local\Temp\cc2CcScK.s 			page 11


 257:Src/stm32f4xx_it.c ****   /* USER CODE BEGIN TIM6_DAC_IRQn 1 */
 258:Src/stm32f4xx_it.c **** 
 259:Src/stm32f4xx_it.c ****   /* USER CODE END TIM6_DAC_IRQn 1 */
 260:Src/stm32f4xx_it.c **** }
 340              		.loc 1 260 1 is_stmt 0 view .LVU35
 341 0008 08BD     		pop	{r3, pc}
 342              	.L30:
 343 000a 00BF     		.align	2
 344              	.L29:
 345 000c 00000000 		.word	htim6
 346              		.cfi_endproc
 347              	.LFE142:
 349              		.section	.text.TIM7_IRQHandler,"ax",%progbits
 350              		.align	1
 351              		.global	TIM7_IRQHandler
 352              		.syntax unified
 353              		.thumb
 354              		.thumb_func
 355              		.fpu fpv4-sp-d16
 357              	TIM7_IRQHandler:
 358              	.LFB143:
 261:Src/stm32f4xx_it.c **** 
 262:Src/stm32f4xx_it.c **** /**
 263:Src/stm32f4xx_it.c ****   * @brief This function handles TIM7 global interrupt.
 264:Src/stm32f4xx_it.c ****   */
 265:Src/stm32f4xx_it.c **** void TIM7_IRQHandler(void)
 266:Src/stm32f4xx_it.c **** {
 359              		.loc 1 266 1 is_stmt 1 view -0
 360              		.cfi_startproc
 361              		@ args = 0, pretend = 0, frame = 0
 362              		@ frame_needed = 0, uses_anonymous_args = 0
 363 0000 08B5     		push	{r3, lr}
 364              	.LCFI5:
 365              		.cfi_def_cfa_offset 8
 366              		.cfi_offset 3, -8
 367              		.cfi_offset 14, -4
 267:Src/stm32f4xx_it.c ****   /* USER CODE BEGIN TIM7_IRQn 0 */
 268:Src/stm32f4xx_it.c **** 
 269:Src/stm32f4xx_it.c ****   /* USER CODE END TIM7_IRQn 0 */
 270:Src/stm32f4xx_it.c ****   HAL_TIM_IRQHandler(&htim7);
 368              		.loc 1 270 3 view .LVU37
 369 0002 0248     		ldr	r0, .L33
 370 0004 FFF7FEFF 		bl	HAL_TIM_IRQHandler
 371              	.LVL6:
 271:Src/stm32f4xx_it.c ****   /* USER CODE BEGIN TIM7_IRQn 1 */
 272:Src/stm32f4xx_it.c **** 
 273:Src/stm32f4xx_it.c ****   /* USER CODE END TIM7_IRQn 1 */
 274:Src/stm32f4xx_it.c **** }
 372              		.loc 1 274 1 is_stmt 0 view .LVU38
 373 0008 08BD     		pop	{r3, pc}
 374              	.L34:
 375 000a 00BF     		.align	2
 376              	.L33:
 377 000c 00000000 		.word	htim7
 378              		.cfi_endproc
 379              	.LFE143:
 381              		.section	.text.DMA2_Stream0_IRQHandler,"ax",%progbits
ARM GAS  C:\Users\ncer\AppData\Local\Temp\cc2CcScK.s 			page 12


 382              		.align	1
 383              		.global	DMA2_Stream0_IRQHandler
 384              		.syntax unified
 385              		.thumb
 386              		.thumb_func
 387              		.fpu fpv4-sp-d16
 389              	DMA2_Stream0_IRQHandler:
 390              	.LFB144:
 275:Src/stm32f4xx_it.c **** 
 276:Src/stm32f4xx_it.c **** /**
 277:Src/stm32f4xx_it.c ****   * @brief This function handles DMA2 stream0 global interrupt.
 278:Src/stm32f4xx_it.c ****   */
 279:Src/stm32f4xx_it.c **** void DMA2_Stream0_IRQHandler(void)
 280:Src/stm32f4xx_it.c **** {
 391              		.loc 1 280 1 is_stmt 1 view -0
 392              		.cfi_startproc
 393              		@ args = 0, pretend = 0, frame = 0
 394              		@ frame_needed = 0, uses_anonymous_args = 0
 395 0000 08B5     		push	{r3, lr}
 396              	.LCFI6:
 397              		.cfi_def_cfa_offset 8
 398              		.cfi_offset 3, -8
 399              		.cfi_offset 14, -4
 281:Src/stm32f4xx_it.c ****   /* USER CODE BEGIN DMA2_Stream0_IRQn 0 */
 282:Src/stm32f4xx_it.c **** 
 283:Src/stm32f4xx_it.c ****   /* USER CODE END DMA2_Stream0_IRQn 0 */
 284:Src/stm32f4xx_it.c ****   HAL_DMA_IRQHandler(&hdma_adc1);
 400              		.loc 1 284 3 view .LVU40
 401 0002 0248     		ldr	r0, .L37
 402 0004 FFF7FEFF 		bl	HAL_DMA_IRQHandler
 403              	.LVL7:
 285:Src/stm32f4xx_it.c ****   /* USER CODE BEGIN DMA2_Stream0_IRQn 1 */
 286:Src/stm32f4xx_it.c **** 
 287:Src/stm32f4xx_it.c ****   /* USER CODE END DMA2_Stream0_IRQn 1 */
 288:Src/stm32f4xx_it.c **** }
 404              		.loc 1 288 1 is_stmt 0 view .LVU41
 405 0008 08BD     		pop	{r3, pc}
 406              	.L38:
 407 000a 00BF     		.align	2
 408              	.L37:
 409 000c 00000000 		.word	hdma_adc1
 410              		.cfi_endproc
 411              	.LFE144:
 413              		.section	.text.DMA2_Stream2_IRQHandler,"ax",%progbits
 414              		.align	1
 415              		.global	DMA2_Stream2_IRQHandler
 416              		.syntax unified
 417              		.thumb
 418              		.thumb_func
 419              		.fpu fpv4-sp-d16
 421              	DMA2_Stream2_IRQHandler:
 422              	.LFB145:
 289:Src/stm32f4xx_it.c **** 
 290:Src/stm32f4xx_it.c **** /**
 291:Src/stm32f4xx_it.c ****   * @brief This function handles DMA2 stream2 global interrupt.
 292:Src/stm32f4xx_it.c ****   */
 293:Src/stm32f4xx_it.c **** void DMA2_Stream2_IRQHandler(void)
ARM GAS  C:\Users\ncer\AppData\Local\Temp\cc2CcScK.s 			page 13


 294:Src/stm32f4xx_it.c **** {
 423              		.loc 1 294 1 is_stmt 1 view -0
 424              		.cfi_startproc
 425              		@ args = 0, pretend = 0, frame = 0
 426              		@ frame_needed = 0, uses_anonymous_args = 0
 427 0000 08B5     		push	{r3, lr}
 428              	.LCFI7:
 429              		.cfi_def_cfa_offset 8
 430              		.cfi_offset 3, -8
 431              		.cfi_offset 14, -4
 295:Src/stm32f4xx_it.c ****   /* USER CODE BEGIN DMA2_Stream2_IRQn 0 */
 296:Src/stm32f4xx_it.c **** 
 297:Src/stm32f4xx_it.c ****   /* USER CODE END DMA2_Stream2_IRQn 0 */
 298:Src/stm32f4xx_it.c ****   HAL_DMA_IRQHandler(&hdma_adc2);
 432              		.loc 1 298 3 view .LVU43
 433 0002 0248     		ldr	r0, .L41
 434 0004 FFF7FEFF 		bl	HAL_DMA_IRQHandler
 435              	.LVL8:
 299:Src/stm32f4xx_it.c ****   /* USER CODE BEGIN DMA2_Stream2_IRQn 1 */
 300:Src/stm32f4xx_it.c **** 
 301:Src/stm32f4xx_it.c ****   /* USER CODE END DMA2_Stream2_IRQn 1 */
 302:Src/stm32f4xx_it.c **** }
 436              		.loc 1 302 1 is_stmt 0 view .LVU44
 437 0008 08BD     		pop	{r3, pc}
 438              	.L42:
 439 000a 00BF     		.align	2
 440              	.L41:
 441 000c 00000000 		.word	hdma_adc2
 442              		.cfi_endproc
 443              	.LFE145:
 445              		.text
 446              	.Letext0:
 447              		.file 2 "c:\\arm_gcc\\arm-none-eabi\\include\\machine\\_default_types.h"
 448              		.file 3 "c:\\arm_gcc\\arm-none-eabi\\include\\sys\\_stdint.h"
 449              		.file 4 "Drivers/CMSIS/Include/core_cm4.h"
 450              		.file 5 "Drivers/CMSIS/Device/ST/STM32F4xx/Include/system_stm32f4xx.h"
 451              		.file 6 "Drivers/CMSIS/Device/ST/STM32F4xx/Include/stm32f405xx.h"
 452              		.file 7 "Drivers/STM32F4xx_HAL_Driver/Inc/stm32f4xx_hal_def.h"
 453              		.file 8 "Drivers/STM32F4xx_HAL_Driver/Inc/stm32f4xx_hal_dma.h"
 454              		.file 9 "Drivers/STM32F4xx_HAL_Driver/Inc/stm32f4xx_hal_tim.h"
 455              		.file 10 "Drivers/STM32F4xx_HAL_Driver/Inc/stm32f4xx_hal.h"
 456              		.file 11 "Inc/main.h"
ARM GAS  C:\Users\ncer\AppData\Local\Temp\cc2CcScK.s 			page 14

