ARM GAS  C:\Users\ncer\AppData\Local\Temp\ccYOzh7d.s 			page 1


   1              		.cpu cortex-m4
   2              		.eabi_attribute 27, 1
   3              		.eabi_attribute 28, 1
   4              		.eabi_attribute 20, 1
   5              		.eabi_attribute 21, 1
   6              		.eabi_attribute 23, 3
   7              		.eabi_attribute 24, 1
   8              		.eabi_attribute 25, 1
   9              		.eabi_attribute 26, 1
  10              		.eabi_attribute 30, 1
  11              		.eabi_attribute 34, 1
  12              		.eabi_attribute 18, 4
  13              		.file	"stm32f4xx_hal_rcc.c"
  14              		.text
  15              	.Ltext0:
  16              		.cfi_sections	.debug_frame
  17              		.section	.text.HAL_RCC_DeInit,"ax",%progbits
  18              		.align	1
  19              		.weak	HAL_RCC_DeInit
  20              		.arch armv7e-m
  21              		.syntax unified
  22              		.thumb
  23              		.thumb_func
  24              		.fpu fpv4-sp-d16
  26              	HAL_RCC_DeInit:
  27              	.LFB130:
  28              		.file 1 "Drivers/STM32F4xx_HAL_Driver/Src/stm32f4xx_hal_rcc.c"
   1:Drivers/STM32F4xx_HAL_Driver/Src/stm32f4xx_hal_rcc.c **** /**
   2:Drivers/STM32F4xx_HAL_Driver/Src/stm32f4xx_hal_rcc.c ****   ******************************************************************************
   3:Drivers/STM32F4xx_HAL_Driver/Src/stm32f4xx_hal_rcc.c ****   * @file    stm32f4xx_hal_rcc.c
   4:Drivers/STM32F4xx_HAL_Driver/Src/stm32f4xx_hal_rcc.c ****   * @author  MCD Application Team
   5:Drivers/STM32F4xx_HAL_Driver/Src/stm32f4xx_hal_rcc.c ****   * @brief   RCC HAL module driver.
   6:Drivers/STM32F4xx_HAL_Driver/Src/stm32f4xx_hal_rcc.c ****   *          This file provides firmware functions to manage the following
   7:Drivers/STM32F4xx_HAL_Driver/Src/stm32f4xx_hal_rcc.c ****   *          functionalities of the Reset and Clock Control (RCC) peripheral:
   8:Drivers/STM32F4xx_HAL_Driver/Src/stm32f4xx_hal_rcc.c ****   *           + Initialization and de-initialization functions
   9:Drivers/STM32F4xx_HAL_Driver/Src/stm32f4xx_hal_rcc.c ****   *           + Peripheral Control functions
  10:Drivers/STM32F4xx_HAL_Driver/Src/stm32f4xx_hal_rcc.c ****   *
  11:Drivers/STM32F4xx_HAL_Driver/Src/stm32f4xx_hal_rcc.c ****   @verbatim
  12:Drivers/STM32F4xx_HAL_Driver/Src/stm32f4xx_hal_rcc.c ****   ==============================================================================
  13:Drivers/STM32F4xx_HAL_Driver/Src/stm32f4xx_hal_rcc.c ****                       ##### RCC specific features #####
  14:Drivers/STM32F4xx_HAL_Driver/Src/stm32f4xx_hal_rcc.c ****   ==============================================================================
  15:Drivers/STM32F4xx_HAL_Driver/Src/stm32f4xx_hal_rcc.c ****     [..]
  16:Drivers/STM32F4xx_HAL_Driver/Src/stm32f4xx_hal_rcc.c ****       After reset the device is running from Internal High Speed oscillator
  17:Drivers/STM32F4xx_HAL_Driver/Src/stm32f4xx_hal_rcc.c ****       (HSI 16MHz) with Flash 0 wait state, Flash prefetch buffer, D-Cache
  18:Drivers/STM32F4xx_HAL_Driver/Src/stm32f4xx_hal_rcc.c ****       and I-Cache are disabled, and all peripherals are off except internal
  19:Drivers/STM32F4xx_HAL_Driver/Src/stm32f4xx_hal_rcc.c ****       SRAM, Flash and JTAG.
  20:Drivers/STM32F4xx_HAL_Driver/Src/stm32f4xx_hal_rcc.c ****       (+) There is no prescaler on High speed (AHB) and Low speed (APB) busses;
  21:Drivers/STM32F4xx_HAL_Driver/Src/stm32f4xx_hal_rcc.c ****           all peripherals mapped on these busses are running at HSI speed.
  22:Drivers/STM32F4xx_HAL_Driver/Src/stm32f4xx_hal_rcc.c ****       (+) The clock for all peripherals is switched off, except the SRAM and FLASH.
  23:Drivers/STM32F4xx_HAL_Driver/Src/stm32f4xx_hal_rcc.c ****       (+) All GPIOs are in input floating state, except the JTAG pins which
  24:Drivers/STM32F4xx_HAL_Driver/Src/stm32f4xx_hal_rcc.c ****           are assigned to be used for debug purpose.
  25:Drivers/STM32F4xx_HAL_Driver/Src/stm32f4xx_hal_rcc.c **** 
  26:Drivers/STM32F4xx_HAL_Driver/Src/stm32f4xx_hal_rcc.c ****     [..]
  27:Drivers/STM32F4xx_HAL_Driver/Src/stm32f4xx_hal_rcc.c ****       Once the device started from reset, the user application has to:
  28:Drivers/STM32F4xx_HAL_Driver/Src/stm32f4xx_hal_rcc.c ****       (+) Configure the clock source to be used to drive the System clock
  29:Drivers/STM32F4xx_HAL_Driver/Src/stm32f4xx_hal_rcc.c ****           (if the application needs higher frequency/performance)
  30:Drivers/STM32F4xx_HAL_Driver/Src/stm32f4xx_hal_rcc.c ****       (+) Configure the System clock frequency and Flash settings
ARM GAS  C:\Users\ncer\AppData\Local\Temp\ccYOzh7d.s 			page 2


  31:Drivers/STM32F4xx_HAL_Driver/Src/stm32f4xx_hal_rcc.c ****       (+) Configure the AHB and APB busses prescalers
  32:Drivers/STM32F4xx_HAL_Driver/Src/stm32f4xx_hal_rcc.c ****       (+) Enable the clock for the peripheral(s) to be used
  33:Drivers/STM32F4xx_HAL_Driver/Src/stm32f4xx_hal_rcc.c ****       (+) Configure the clock source(s) for peripherals which clocks are not
  34:Drivers/STM32F4xx_HAL_Driver/Src/stm32f4xx_hal_rcc.c ****           derived from the System clock (I2S, RTC, ADC, USB OTG FS/SDIO/RNG)
  35:Drivers/STM32F4xx_HAL_Driver/Src/stm32f4xx_hal_rcc.c **** 
  36:Drivers/STM32F4xx_HAL_Driver/Src/stm32f4xx_hal_rcc.c ****                       ##### RCC Limitations #####
  37:Drivers/STM32F4xx_HAL_Driver/Src/stm32f4xx_hal_rcc.c ****   ==============================================================================
  38:Drivers/STM32F4xx_HAL_Driver/Src/stm32f4xx_hal_rcc.c ****     [..]
  39:Drivers/STM32F4xx_HAL_Driver/Src/stm32f4xx_hal_rcc.c ****       A delay between an RCC peripheral clock enable and the effective peripheral
  40:Drivers/STM32F4xx_HAL_Driver/Src/stm32f4xx_hal_rcc.c ****       enabling should be taken into account in order to manage the peripheral read/write
  41:Drivers/STM32F4xx_HAL_Driver/Src/stm32f4xx_hal_rcc.c ****       from/to registers.
  42:Drivers/STM32F4xx_HAL_Driver/Src/stm32f4xx_hal_rcc.c ****       (+) This delay depends on the peripheral mapping.
  43:Drivers/STM32F4xx_HAL_Driver/Src/stm32f4xx_hal_rcc.c ****       (+) If peripheral is mapped on AHB: the delay is 2 AHB clock cycle
  44:Drivers/STM32F4xx_HAL_Driver/Src/stm32f4xx_hal_rcc.c ****           after the clock enable bit is set on the hardware register
  45:Drivers/STM32F4xx_HAL_Driver/Src/stm32f4xx_hal_rcc.c ****       (+) If peripheral is mapped on APB: the delay is 2 APB clock cycle
  46:Drivers/STM32F4xx_HAL_Driver/Src/stm32f4xx_hal_rcc.c ****           after the clock enable bit is set on the hardware register
  47:Drivers/STM32F4xx_HAL_Driver/Src/stm32f4xx_hal_rcc.c **** 
  48:Drivers/STM32F4xx_HAL_Driver/Src/stm32f4xx_hal_rcc.c ****     [..]
  49:Drivers/STM32F4xx_HAL_Driver/Src/stm32f4xx_hal_rcc.c ****       Implemented Workaround:
  50:Drivers/STM32F4xx_HAL_Driver/Src/stm32f4xx_hal_rcc.c ****       (+) For AHB & APB peripherals, a dummy read to the peripheral register has been
  51:Drivers/STM32F4xx_HAL_Driver/Src/stm32f4xx_hal_rcc.c ****           inserted in each __HAL_RCC_PPP_CLK_ENABLE() macro.
  52:Drivers/STM32F4xx_HAL_Driver/Src/stm32f4xx_hal_rcc.c **** 
  53:Drivers/STM32F4xx_HAL_Driver/Src/stm32f4xx_hal_rcc.c ****   @endverbatim
  54:Drivers/STM32F4xx_HAL_Driver/Src/stm32f4xx_hal_rcc.c ****   ******************************************************************************
  55:Drivers/STM32F4xx_HAL_Driver/Src/stm32f4xx_hal_rcc.c ****   * @attention
  56:Drivers/STM32F4xx_HAL_Driver/Src/stm32f4xx_hal_rcc.c ****   *
  57:Drivers/STM32F4xx_HAL_Driver/Src/stm32f4xx_hal_rcc.c ****   * <h2><center>&copy; Copyright (c) 2017 STMicroelectronics.
  58:Drivers/STM32F4xx_HAL_Driver/Src/stm32f4xx_hal_rcc.c ****   * All rights reserved.</center></h2>
  59:Drivers/STM32F4xx_HAL_Driver/Src/stm32f4xx_hal_rcc.c ****   *
  60:Drivers/STM32F4xx_HAL_Driver/Src/stm32f4xx_hal_rcc.c ****   * This software component is licensed by ST under BSD 3-Clause license,
  61:Drivers/STM32F4xx_HAL_Driver/Src/stm32f4xx_hal_rcc.c ****   * the "License"; You may not use this file except in compliance with the
  62:Drivers/STM32F4xx_HAL_Driver/Src/stm32f4xx_hal_rcc.c ****   * License. You may obtain a copy of the License at:
  63:Drivers/STM32F4xx_HAL_Driver/Src/stm32f4xx_hal_rcc.c ****   *                        opensource.org/licenses/BSD-3-Clause
  64:Drivers/STM32F4xx_HAL_Driver/Src/stm32f4xx_hal_rcc.c ****   *
  65:Drivers/STM32F4xx_HAL_Driver/Src/stm32f4xx_hal_rcc.c ****   ******************************************************************************
  66:Drivers/STM32F4xx_HAL_Driver/Src/stm32f4xx_hal_rcc.c ****   */
  67:Drivers/STM32F4xx_HAL_Driver/Src/stm32f4xx_hal_rcc.c **** 
  68:Drivers/STM32F4xx_HAL_Driver/Src/stm32f4xx_hal_rcc.c **** /* Includes ------------------------------------------------------------------*/
  69:Drivers/STM32F4xx_HAL_Driver/Src/stm32f4xx_hal_rcc.c **** #include "stm32f4xx_hal.h"
  70:Drivers/STM32F4xx_HAL_Driver/Src/stm32f4xx_hal_rcc.c **** 
  71:Drivers/STM32F4xx_HAL_Driver/Src/stm32f4xx_hal_rcc.c **** /** @addtogroup STM32F4xx_HAL_Driver
  72:Drivers/STM32F4xx_HAL_Driver/Src/stm32f4xx_hal_rcc.c ****   * @{
  73:Drivers/STM32F4xx_HAL_Driver/Src/stm32f4xx_hal_rcc.c ****   */
  74:Drivers/STM32F4xx_HAL_Driver/Src/stm32f4xx_hal_rcc.c **** 
  75:Drivers/STM32F4xx_HAL_Driver/Src/stm32f4xx_hal_rcc.c **** /** @defgroup RCC RCC
  76:Drivers/STM32F4xx_HAL_Driver/Src/stm32f4xx_hal_rcc.c ****   * @brief RCC HAL module driver
  77:Drivers/STM32F4xx_HAL_Driver/Src/stm32f4xx_hal_rcc.c ****   * @{
  78:Drivers/STM32F4xx_HAL_Driver/Src/stm32f4xx_hal_rcc.c ****   */
  79:Drivers/STM32F4xx_HAL_Driver/Src/stm32f4xx_hal_rcc.c **** 
  80:Drivers/STM32F4xx_HAL_Driver/Src/stm32f4xx_hal_rcc.c **** #ifdef HAL_RCC_MODULE_ENABLED
  81:Drivers/STM32F4xx_HAL_Driver/Src/stm32f4xx_hal_rcc.c **** 
  82:Drivers/STM32F4xx_HAL_Driver/Src/stm32f4xx_hal_rcc.c **** /* Private typedef -----------------------------------------------------------*/
  83:Drivers/STM32F4xx_HAL_Driver/Src/stm32f4xx_hal_rcc.c **** /* Private define ------------------------------------------------------------*/
  84:Drivers/STM32F4xx_HAL_Driver/Src/stm32f4xx_hal_rcc.c **** /** @addtogroup RCC_Private_Constants
  85:Drivers/STM32F4xx_HAL_Driver/Src/stm32f4xx_hal_rcc.c ****   * @{
  86:Drivers/STM32F4xx_HAL_Driver/Src/stm32f4xx_hal_rcc.c ****   */
  87:Drivers/STM32F4xx_HAL_Driver/Src/stm32f4xx_hal_rcc.c **** 
ARM GAS  C:\Users\ncer\AppData\Local\Temp\ccYOzh7d.s 			page 3


  88:Drivers/STM32F4xx_HAL_Driver/Src/stm32f4xx_hal_rcc.c **** /* Private macro -------------------------------------------------------------*/
  89:Drivers/STM32F4xx_HAL_Driver/Src/stm32f4xx_hal_rcc.c **** #define __MCO1_CLK_ENABLE()   __HAL_RCC_GPIOA_CLK_ENABLE()
  90:Drivers/STM32F4xx_HAL_Driver/Src/stm32f4xx_hal_rcc.c **** #define MCO1_GPIO_PORT        GPIOA
  91:Drivers/STM32F4xx_HAL_Driver/Src/stm32f4xx_hal_rcc.c **** #define MCO1_PIN              GPIO_PIN_8
  92:Drivers/STM32F4xx_HAL_Driver/Src/stm32f4xx_hal_rcc.c **** 
  93:Drivers/STM32F4xx_HAL_Driver/Src/stm32f4xx_hal_rcc.c **** #define __MCO2_CLK_ENABLE()   __HAL_RCC_GPIOC_CLK_ENABLE()
  94:Drivers/STM32F4xx_HAL_Driver/Src/stm32f4xx_hal_rcc.c **** #define MCO2_GPIO_PORT         GPIOC
  95:Drivers/STM32F4xx_HAL_Driver/Src/stm32f4xx_hal_rcc.c **** #define MCO2_PIN               GPIO_PIN_9
  96:Drivers/STM32F4xx_HAL_Driver/Src/stm32f4xx_hal_rcc.c **** /**
  97:Drivers/STM32F4xx_HAL_Driver/Src/stm32f4xx_hal_rcc.c ****   * @}
  98:Drivers/STM32F4xx_HAL_Driver/Src/stm32f4xx_hal_rcc.c ****   */
  99:Drivers/STM32F4xx_HAL_Driver/Src/stm32f4xx_hal_rcc.c **** 
 100:Drivers/STM32F4xx_HAL_Driver/Src/stm32f4xx_hal_rcc.c **** /* Private variables ---------------------------------------------------------*/
 101:Drivers/STM32F4xx_HAL_Driver/Src/stm32f4xx_hal_rcc.c **** /** @defgroup RCC_Private_Variables RCC Private Variables
 102:Drivers/STM32F4xx_HAL_Driver/Src/stm32f4xx_hal_rcc.c ****   * @{
 103:Drivers/STM32F4xx_HAL_Driver/Src/stm32f4xx_hal_rcc.c ****   */
 104:Drivers/STM32F4xx_HAL_Driver/Src/stm32f4xx_hal_rcc.c **** /**
 105:Drivers/STM32F4xx_HAL_Driver/Src/stm32f4xx_hal_rcc.c ****   * @}
 106:Drivers/STM32F4xx_HAL_Driver/Src/stm32f4xx_hal_rcc.c ****   */
 107:Drivers/STM32F4xx_HAL_Driver/Src/stm32f4xx_hal_rcc.c **** /* Private function prototypes -----------------------------------------------*/
 108:Drivers/STM32F4xx_HAL_Driver/Src/stm32f4xx_hal_rcc.c **** /* Private functions ---------------------------------------------------------*/
 109:Drivers/STM32F4xx_HAL_Driver/Src/stm32f4xx_hal_rcc.c **** 
 110:Drivers/STM32F4xx_HAL_Driver/Src/stm32f4xx_hal_rcc.c **** /** @defgroup RCC_Exported_Functions RCC Exported Functions
 111:Drivers/STM32F4xx_HAL_Driver/Src/stm32f4xx_hal_rcc.c ****   *  @{
 112:Drivers/STM32F4xx_HAL_Driver/Src/stm32f4xx_hal_rcc.c ****   */
 113:Drivers/STM32F4xx_HAL_Driver/Src/stm32f4xx_hal_rcc.c **** 
 114:Drivers/STM32F4xx_HAL_Driver/Src/stm32f4xx_hal_rcc.c **** /** @defgroup RCC_Exported_Functions_Group1 Initialization and de-initialization functions
 115:Drivers/STM32F4xx_HAL_Driver/Src/stm32f4xx_hal_rcc.c ****  *  @brief    Initialization and Configuration functions
 116:Drivers/STM32F4xx_HAL_Driver/Src/stm32f4xx_hal_rcc.c ****  *
 117:Drivers/STM32F4xx_HAL_Driver/Src/stm32f4xx_hal_rcc.c **** @verbatim
 118:Drivers/STM32F4xx_HAL_Driver/Src/stm32f4xx_hal_rcc.c ****  ===============================================================================
 119:Drivers/STM32F4xx_HAL_Driver/Src/stm32f4xx_hal_rcc.c ****            ##### Initialization and de-initialization functions #####
 120:Drivers/STM32F4xx_HAL_Driver/Src/stm32f4xx_hal_rcc.c ****  ===============================================================================
 121:Drivers/STM32F4xx_HAL_Driver/Src/stm32f4xx_hal_rcc.c ****     [..]
 122:Drivers/STM32F4xx_HAL_Driver/Src/stm32f4xx_hal_rcc.c ****       This section provides functions allowing to configure the internal/external oscillators
 123:Drivers/STM32F4xx_HAL_Driver/Src/stm32f4xx_hal_rcc.c ****       (HSE, HSI, LSE, LSI, PLL, CSS and MCO) and the System busses clocks (SYSCLK, AHB, APB1
 124:Drivers/STM32F4xx_HAL_Driver/Src/stm32f4xx_hal_rcc.c ****        and APB2).
 125:Drivers/STM32F4xx_HAL_Driver/Src/stm32f4xx_hal_rcc.c **** 
 126:Drivers/STM32F4xx_HAL_Driver/Src/stm32f4xx_hal_rcc.c ****     [..] Internal/external clock and PLL configuration
 127:Drivers/STM32F4xx_HAL_Driver/Src/stm32f4xx_hal_rcc.c ****          (#) HSI (high-speed internal), 16 MHz factory-trimmed RC used directly or through
 128:Drivers/STM32F4xx_HAL_Driver/Src/stm32f4xx_hal_rcc.c ****              the PLL as System clock source.
 129:Drivers/STM32F4xx_HAL_Driver/Src/stm32f4xx_hal_rcc.c **** 
 130:Drivers/STM32F4xx_HAL_Driver/Src/stm32f4xx_hal_rcc.c ****          (#) LSI (low-speed internal), 32 KHz low consumption RC used as IWDG and/or RTC
 131:Drivers/STM32F4xx_HAL_Driver/Src/stm32f4xx_hal_rcc.c ****              clock source.
 132:Drivers/STM32F4xx_HAL_Driver/Src/stm32f4xx_hal_rcc.c **** 
 133:Drivers/STM32F4xx_HAL_Driver/Src/stm32f4xx_hal_rcc.c ****          (#) HSE (high-speed external), 4 to 26 MHz crystal oscillator used directly or
 134:Drivers/STM32F4xx_HAL_Driver/Src/stm32f4xx_hal_rcc.c ****              through the PLL as System clock source. Can be used also as RTC clock source.
 135:Drivers/STM32F4xx_HAL_Driver/Src/stm32f4xx_hal_rcc.c **** 
 136:Drivers/STM32F4xx_HAL_Driver/Src/stm32f4xx_hal_rcc.c ****          (#) LSE (low-speed external), 32 KHz oscillator used as RTC clock source.
 137:Drivers/STM32F4xx_HAL_Driver/Src/stm32f4xx_hal_rcc.c **** 
 138:Drivers/STM32F4xx_HAL_Driver/Src/stm32f4xx_hal_rcc.c ****          (#) PLL (clocked by HSI or HSE), featuring two different output clocks:
 139:Drivers/STM32F4xx_HAL_Driver/Src/stm32f4xx_hal_rcc.c ****            (++) The first output is used to generate the high speed system clock (up to 168 MHz)
 140:Drivers/STM32F4xx_HAL_Driver/Src/stm32f4xx_hal_rcc.c ****            (++) The second output is used to generate the clock for the USB OTG FS (48 MHz),
 141:Drivers/STM32F4xx_HAL_Driver/Src/stm32f4xx_hal_rcc.c ****                 the random analog generator (<=48 MHz) and the SDIO (<= 48 MHz).
 142:Drivers/STM32F4xx_HAL_Driver/Src/stm32f4xx_hal_rcc.c **** 
 143:Drivers/STM32F4xx_HAL_Driver/Src/stm32f4xx_hal_rcc.c ****          (#) CSS (Clock security system), once enable using the macro __HAL_RCC_CSS_ENABLE()
 144:Drivers/STM32F4xx_HAL_Driver/Src/stm32f4xx_hal_rcc.c ****              and if a HSE clock failure occurs(HSE used directly or through PLL as System
ARM GAS  C:\Users\ncer\AppData\Local\Temp\ccYOzh7d.s 			page 4


 145:Drivers/STM32F4xx_HAL_Driver/Src/stm32f4xx_hal_rcc.c ****              clock source), the System clocks automatically switched to HSI and an interrupt
 146:Drivers/STM32F4xx_HAL_Driver/Src/stm32f4xx_hal_rcc.c ****              is generated if enabled. The interrupt is linked to the Cortex-M4 NMI
 147:Drivers/STM32F4xx_HAL_Driver/Src/stm32f4xx_hal_rcc.c ****              (Non-Maskable Interrupt) exception vector.
 148:Drivers/STM32F4xx_HAL_Driver/Src/stm32f4xx_hal_rcc.c **** 
 149:Drivers/STM32F4xx_HAL_Driver/Src/stm32f4xx_hal_rcc.c ****          (#) MCO1 (microcontroller clock output), used to output HSI, LSE, HSE or PLL
 150:Drivers/STM32F4xx_HAL_Driver/Src/stm32f4xx_hal_rcc.c ****              clock (through a configurable prescaler) on PA8 pin.
 151:Drivers/STM32F4xx_HAL_Driver/Src/stm32f4xx_hal_rcc.c **** 
 152:Drivers/STM32F4xx_HAL_Driver/Src/stm32f4xx_hal_rcc.c ****          (#) MCO2 (microcontroller clock output), used to output HSE, PLL, SYSCLK or PLLI2S
 153:Drivers/STM32F4xx_HAL_Driver/Src/stm32f4xx_hal_rcc.c ****              clock (through a configurable prescaler) on PC9 pin.
 154:Drivers/STM32F4xx_HAL_Driver/Src/stm32f4xx_hal_rcc.c **** 
 155:Drivers/STM32F4xx_HAL_Driver/Src/stm32f4xx_hal_rcc.c ****     [..] System, AHB and APB busses clocks configuration
 156:Drivers/STM32F4xx_HAL_Driver/Src/stm32f4xx_hal_rcc.c ****          (#) Several clock sources can be used to drive the System clock (SYSCLK): HSI,
 157:Drivers/STM32F4xx_HAL_Driver/Src/stm32f4xx_hal_rcc.c ****              HSE and PLL.
 158:Drivers/STM32F4xx_HAL_Driver/Src/stm32f4xx_hal_rcc.c ****              The AHB clock (HCLK) is derived from System clock through configurable
 159:Drivers/STM32F4xx_HAL_Driver/Src/stm32f4xx_hal_rcc.c ****              prescaler and used to clock the CPU, memory and peripherals mapped
 160:Drivers/STM32F4xx_HAL_Driver/Src/stm32f4xx_hal_rcc.c ****              on AHB bus (DMA, GPIO...). APB1 (PCLK1) and APB2 (PCLK2) clocks are derived
 161:Drivers/STM32F4xx_HAL_Driver/Src/stm32f4xx_hal_rcc.c ****              from AHB clock through configurable prescalers and used to clock
 162:Drivers/STM32F4xx_HAL_Driver/Src/stm32f4xx_hal_rcc.c ****              the peripherals mapped on these busses. You can use
 163:Drivers/STM32F4xx_HAL_Driver/Src/stm32f4xx_hal_rcc.c ****              "HAL_RCC_GetSysClockFreq()" function to retrieve the frequencies of these clocks.
 164:Drivers/STM32F4xx_HAL_Driver/Src/stm32f4xx_hal_rcc.c **** 
 165:Drivers/STM32F4xx_HAL_Driver/Src/stm32f4xx_hal_rcc.c ****          (#) For the STM32F405xx/07xx and STM32F415xx/17xx devices, the maximum
 166:Drivers/STM32F4xx_HAL_Driver/Src/stm32f4xx_hal_rcc.c ****              frequency of the SYSCLK and HCLK is 168 MHz, PCLK2 84 MHz and PCLK1 42 MHz.
 167:Drivers/STM32F4xx_HAL_Driver/Src/stm32f4xx_hal_rcc.c ****              Depending on the device voltage range, the maximum frequency should
 168:Drivers/STM32F4xx_HAL_Driver/Src/stm32f4xx_hal_rcc.c ****              be adapted accordingly (refer to the product datasheets for more details).
 169:Drivers/STM32F4xx_HAL_Driver/Src/stm32f4xx_hal_rcc.c **** 
 170:Drivers/STM32F4xx_HAL_Driver/Src/stm32f4xx_hal_rcc.c ****          (#) For the STM32F42xxx, STM32F43xxx, STM32F446xx, STM32F469xx and STM32F479xx devices,
 171:Drivers/STM32F4xx_HAL_Driver/Src/stm32f4xx_hal_rcc.c ****              the maximum frequency of the SYSCLK and HCLK is 180 MHz, PCLK2 90 MHz and PCLK1 45 MHz
 172:Drivers/STM32F4xx_HAL_Driver/Src/stm32f4xx_hal_rcc.c ****              Depending on the device voltage range, the maximum frequency should
 173:Drivers/STM32F4xx_HAL_Driver/Src/stm32f4xx_hal_rcc.c ****              be adapted accordingly (refer to the product datasheets for more details).
 174:Drivers/STM32F4xx_HAL_Driver/Src/stm32f4xx_hal_rcc.c **** 
 175:Drivers/STM32F4xx_HAL_Driver/Src/stm32f4xx_hal_rcc.c ****          (#) For the STM32F401xx, the maximum frequency of the SYSCLK and HCLK is 84 MHz,
 176:Drivers/STM32F4xx_HAL_Driver/Src/stm32f4xx_hal_rcc.c ****              PCLK2 84 MHz and PCLK1 42 MHz.
 177:Drivers/STM32F4xx_HAL_Driver/Src/stm32f4xx_hal_rcc.c ****              Depending on the device voltage range, the maximum frequency should
 178:Drivers/STM32F4xx_HAL_Driver/Src/stm32f4xx_hal_rcc.c ****              be adapted accordingly (refer to the product datasheets for more details).
 179:Drivers/STM32F4xx_HAL_Driver/Src/stm32f4xx_hal_rcc.c **** 
 180:Drivers/STM32F4xx_HAL_Driver/Src/stm32f4xx_hal_rcc.c ****          (#) For the STM32F41xxx, the maximum frequency of the SYSCLK and HCLK is 100 MHz,
 181:Drivers/STM32F4xx_HAL_Driver/Src/stm32f4xx_hal_rcc.c ****              PCLK2 100 MHz and PCLK1 50 MHz.
 182:Drivers/STM32F4xx_HAL_Driver/Src/stm32f4xx_hal_rcc.c ****              Depending on the device voltage range, the maximum frequency should
 183:Drivers/STM32F4xx_HAL_Driver/Src/stm32f4xx_hal_rcc.c ****              be adapted accordingly (refer to the product datasheets for more details).
 184:Drivers/STM32F4xx_HAL_Driver/Src/stm32f4xx_hal_rcc.c **** 
 185:Drivers/STM32F4xx_HAL_Driver/Src/stm32f4xx_hal_rcc.c **** @endverbatim
 186:Drivers/STM32F4xx_HAL_Driver/Src/stm32f4xx_hal_rcc.c ****   * @{
 187:Drivers/STM32F4xx_HAL_Driver/Src/stm32f4xx_hal_rcc.c ****   */
 188:Drivers/STM32F4xx_HAL_Driver/Src/stm32f4xx_hal_rcc.c **** 
 189:Drivers/STM32F4xx_HAL_Driver/Src/stm32f4xx_hal_rcc.c **** /**
 190:Drivers/STM32F4xx_HAL_Driver/Src/stm32f4xx_hal_rcc.c ****   * @brief  Resets the RCC clock configuration to the default reset state.
 191:Drivers/STM32F4xx_HAL_Driver/Src/stm32f4xx_hal_rcc.c ****   * @note   The default reset state of the clock configuration is given below:
 192:Drivers/STM32F4xx_HAL_Driver/Src/stm32f4xx_hal_rcc.c ****   *            - HSI ON and used as system clock source
 193:Drivers/STM32F4xx_HAL_Driver/Src/stm32f4xx_hal_rcc.c ****   *            - HSE and PLL OFF
 194:Drivers/STM32F4xx_HAL_Driver/Src/stm32f4xx_hal_rcc.c ****   *            - AHB, APB1 and APB2 prescaler set to 1.
 195:Drivers/STM32F4xx_HAL_Driver/Src/stm32f4xx_hal_rcc.c ****   *            - CSS, MCO1 and MCO2 OFF
 196:Drivers/STM32F4xx_HAL_Driver/Src/stm32f4xx_hal_rcc.c ****   *            - All interrupts disabled
 197:Drivers/STM32F4xx_HAL_Driver/Src/stm32f4xx_hal_rcc.c ****   * @note   This function doesn't modify the configuration of the
 198:Drivers/STM32F4xx_HAL_Driver/Src/stm32f4xx_hal_rcc.c ****   *            - Peripheral clocks
 199:Drivers/STM32F4xx_HAL_Driver/Src/stm32f4xx_hal_rcc.c ****   *            - LSI, LSE and RTC clocks
 200:Drivers/STM32F4xx_HAL_Driver/Src/stm32f4xx_hal_rcc.c ****   * @retval HAL status
 201:Drivers/STM32F4xx_HAL_Driver/Src/stm32f4xx_hal_rcc.c ****   */
ARM GAS  C:\Users\ncer\AppData\Local\Temp\ccYOzh7d.s 			page 5


 202:Drivers/STM32F4xx_HAL_Driver/Src/stm32f4xx_hal_rcc.c **** __weak HAL_StatusTypeDef HAL_RCC_DeInit(void)
 203:Drivers/STM32F4xx_HAL_Driver/Src/stm32f4xx_hal_rcc.c **** {
  29              		.loc 1 203 1 view -0
  30              		.cfi_startproc
  31              		@ args = 0, pretend = 0, frame = 0
  32              		@ frame_needed = 0, uses_anonymous_args = 0
  33              		@ link register save eliminated.
 204:Drivers/STM32F4xx_HAL_Driver/Src/stm32f4xx_hal_rcc.c ****   return HAL_OK;
  34              		.loc 1 204 3 view .LVU1
 205:Drivers/STM32F4xx_HAL_Driver/Src/stm32f4xx_hal_rcc.c **** }
  35              		.loc 1 205 1 is_stmt 0 view .LVU2
  36 0000 0020     		movs	r0, #0
  37 0002 7047     		bx	lr
  38              		.cfi_endproc
  39              	.LFE130:
  41              		.section	.text.HAL_RCC_OscConfig,"ax",%progbits
  42              		.align	1
  43              		.weak	HAL_RCC_OscConfig
  44              		.syntax unified
  45              		.thumb
  46              		.thumb_func
  47              		.fpu fpv4-sp-d16
  49              	HAL_RCC_OscConfig:
  50              	.LVL0:
  51              	.LFB131:
 206:Drivers/STM32F4xx_HAL_Driver/Src/stm32f4xx_hal_rcc.c **** 
 207:Drivers/STM32F4xx_HAL_Driver/Src/stm32f4xx_hal_rcc.c **** /**
 208:Drivers/STM32F4xx_HAL_Driver/Src/stm32f4xx_hal_rcc.c ****   * @brief  Initializes the RCC Oscillators according to the specified parameters in the
 209:Drivers/STM32F4xx_HAL_Driver/Src/stm32f4xx_hal_rcc.c ****   *         RCC_OscInitTypeDef.
 210:Drivers/STM32F4xx_HAL_Driver/Src/stm32f4xx_hal_rcc.c ****   * @param  RCC_OscInitStruct pointer to an RCC_OscInitTypeDef structure that
 211:Drivers/STM32F4xx_HAL_Driver/Src/stm32f4xx_hal_rcc.c ****   *         contains the configuration information for the RCC Oscillators.
 212:Drivers/STM32F4xx_HAL_Driver/Src/stm32f4xx_hal_rcc.c ****   * @note   The PLL is not disabled when used as system clock.
 213:Drivers/STM32F4xx_HAL_Driver/Src/stm32f4xx_hal_rcc.c ****   * @note   Transitions LSE Bypass to LSE On and LSE On to LSE Bypass are not
 214:Drivers/STM32F4xx_HAL_Driver/Src/stm32f4xx_hal_rcc.c ****   *         supported by this API. User should request a transition to LSE Off
 215:Drivers/STM32F4xx_HAL_Driver/Src/stm32f4xx_hal_rcc.c ****   *         first and then LSE On or LSE Bypass.
 216:Drivers/STM32F4xx_HAL_Driver/Src/stm32f4xx_hal_rcc.c ****   * @note   Transition HSE Bypass to HSE On and HSE On to HSE Bypass are not
 217:Drivers/STM32F4xx_HAL_Driver/Src/stm32f4xx_hal_rcc.c ****   *         supported by this API. User should request a transition to HSE Off
 218:Drivers/STM32F4xx_HAL_Driver/Src/stm32f4xx_hal_rcc.c ****   *         first and then HSE On or HSE Bypass.
 219:Drivers/STM32F4xx_HAL_Driver/Src/stm32f4xx_hal_rcc.c ****   * @retval HAL status
 220:Drivers/STM32F4xx_HAL_Driver/Src/stm32f4xx_hal_rcc.c ****   */
 221:Drivers/STM32F4xx_HAL_Driver/Src/stm32f4xx_hal_rcc.c **** __weak HAL_StatusTypeDef HAL_RCC_OscConfig(RCC_OscInitTypeDef  *RCC_OscInitStruct)
 222:Drivers/STM32F4xx_HAL_Driver/Src/stm32f4xx_hal_rcc.c **** {
  52              		.loc 1 222 1 is_stmt 1 view -0
  53              		.cfi_startproc
  54              		@ args = 0, pretend = 0, frame = 8
  55              		@ frame_needed = 0, uses_anonymous_args = 0
 223:Drivers/STM32F4xx_HAL_Driver/Src/stm32f4xx_hal_rcc.c ****   uint32_t tickstart;
  56              		.loc 1 223 3 view .LVU4
 224:Drivers/STM32F4xx_HAL_Driver/Src/stm32f4xx_hal_rcc.c **** 
 225:Drivers/STM32F4xx_HAL_Driver/Src/stm32f4xx_hal_rcc.c ****   /* Check Null pointer */
 226:Drivers/STM32F4xx_HAL_Driver/Src/stm32f4xx_hal_rcc.c ****   if(RCC_OscInitStruct == NULL)
  57              		.loc 1 226 3 view .LVU5
  58              		.loc 1 226 5 is_stmt 0 view .LVU6
  59 0000 0028     		cmp	r0, #0
  60 0002 00F0B981 		beq	.L51
 222:Drivers/STM32F4xx_HAL_Driver/Src/stm32f4xx_hal_rcc.c ****   uint32_t tickstart;
  61              		.loc 1 222 1 view .LVU7
ARM GAS  C:\Users\ncer\AppData\Local\Temp\ccYOzh7d.s 			page 6


  62 0006 70B5     		push	{r4, r5, r6, lr}
  63              	.LCFI0:
  64              		.cfi_def_cfa_offset 16
  65              		.cfi_offset 4, -16
  66              		.cfi_offset 5, -12
  67              		.cfi_offset 6, -8
  68              		.cfi_offset 14, -4
  69 0008 82B0     		sub	sp, sp, #8
  70              	.LCFI1:
  71              		.cfi_def_cfa_offset 24
  72 000a 0446     		mov	r4, r0
 227:Drivers/STM32F4xx_HAL_Driver/Src/stm32f4xx_hal_rcc.c ****   {
 228:Drivers/STM32F4xx_HAL_Driver/Src/stm32f4xx_hal_rcc.c ****     return HAL_ERROR;
 229:Drivers/STM32F4xx_HAL_Driver/Src/stm32f4xx_hal_rcc.c ****   }
 230:Drivers/STM32F4xx_HAL_Driver/Src/stm32f4xx_hal_rcc.c **** 
 231:Drivers/STM32F4xx_HAL_Driver/Src/stm32f4xx_hal_rcc.c ****   /* Check the parameters */
 232:Drivers/STM32F4xx_HAL_Driver/Src/stm32f4xx_hal_rcc.c ****   assert_param(IS_RCC_OSCILLATORTYPE(RCC_OscInitStruct->OscillatorType));
  73              		.loc 1 232 3 is_stmt 1 view .LVU8
 233:Drivers/STM32F4xx_HAL_Driver/Src/stm32f4xx_hal_rcc.c ****   /*------------------------------- HSE Configuration ------------------------*/
 234:Drivers/STM32F4xx_HAL_Driver/Src/stm32f4xx_hal_rcc.c ****   if(((RCC_OscInitStruct->OscillatorType) & RCC_OSCILLATORTYPE_HSE) == RCC_OSCILLATORTYPE_HSE)
  74              		.loc 1 234 3 view .LVU9
  75              		.loc 1 234 25 is_stmt 0 view .LVU10
  76 000c 0368     		ldr	r3, [r0]
  77              		.loc 1 234 5 view .LVU11
  78 000e 13F0010F 		tst	r3, #1
  79 0012 3BD0     		beq	.L4
 235:Drivers/STM32F4xx_HAL_Driver/Src/stm32f4xx_hal_rcc.c ****   {
 236:Drivers/STM32F4xx_HAL_Driver/Src/stm32f4xx_hal_rcc.c ****     /* Check the parameters */
 237:Drivers/STM32F4xx_HAL_Driver/Src/stm32f4xx_hal_rcc.c ****     assert_param(IS_RCC_HSE(RCC_OscInitStruct->HSEState));
  80              		.loc 1 237 5 is_stmt 1 view .LVU12
 238:Drivers/STM32F4xx_HAL_Driver/Src/stm32f4xx_hal_rcc.c ****     /* When the HSE is used as system clock or clock source for PLL in these cases HSE will not dis
 239:Drivers/STM32F4xx_HAL_Driver/Src/stm32f4xx_hal_rcc.c ****     if((__HAL_RCC_GET_SYSCLK_SOURCE() == RCC_CFGR_SWS_HSE) ||\
  81              		.loc 1 239 5 view .LVU13
  82              		.loc 1 239 9 is_stmt 0 view .LVU14
  83 0014 A64B     		ldr	r3, .L87
  84 0016 9B68     		ldr	r3, [r3, #8]
  85 0018 03F00C03 		and	r3, r3, #12
  86              		.loc 1 239 7 view .LVU15
  87 001c 042B     		cmp	r3, #4
  88 001e 2CD0     		beq	.L5
 240:Drivers/STM32F4xx_HAL_Driver/Src/stm32f4xx_hal_rcc.c ****       ((__HAL_RCC_GET_SYSCLK_SOURCE() == RCC_CFGR_SWS_PLL) && ((RCC->PLLCFGR & RCC_PLLCFGR_PLLSRC) 
  89              		.loc 1 240 9 discriminator 1 view .LVU16
  90 0020 A34B     		ldr	r3, .L87
  91 0022 9B68     		ldr	r3, [r3, #8]
  92 0024 03F00C03 		and	r3, r3, #12
 239:Drivers/STM32F4xx_HAL_Driver/Src/stm32f4xx_hal_rcc.c ****       ((__HAL_RCC_GET_SYSCLK_SOURCE() == RCC_CFGR_SWS_PLL) && ((RCC->PLLCFGR & RCC_PLLCFGR_PLLSRC) 
  93              		.loc 1 239 60 discriminator 1 view .LVU17
  94 0028 082B     		cmp	r3, #8
  95 002a 21D0     		beq	.L73
  96              	.L6:
 241:Drivers/STM32F4xx_HAL_Driver/Src/stm32f4xx_hal_rcc.c ****     {
 242:Drivers/STM32F4xx_HAL_Driver/Src/stm32f4xx_hal_rcc.c ****       if((__HAL_RCC_GET_FLAG(RCC_FLAG_HSERDY) != RESET) && (RCC_OscInitStruct->HSEState == RCC_HSE_
 243:Drivers/STM32F4xx_HAL_Driver/Src/stm32f4xx_hal_rcc.c ****       {
 244:Drivers/STM32F4xx_HAL_Driver/Src/stm32f4xx_hal_rcc.c ****         return HAL_ERROR;
 245:Drivers/STM32F4xx_HAL_Driver/Src/stm32f4xx_hal_rcc.c ****       }
 246:Drivers/STM32F4xx_HAL_Driver/Src/stm32f4xx_hal_rcc.c ****     }
 247:Drivers/STM32F4xx_HAL_Driver/Src/stm32f4xx_hal_rcc.c ****     else
ARM GAS  C:\Users\ncer\AppData\Local\Temp\ccYOzh7d.s 			page 7


 248:Drivers/STM32F4xx_HAL_Driver/Src/stm32f4xx_hal_rcc.c ****     {
 249:Drivers/STM32F4xx_HAL_Driver/Src/stm32f4xx_hal_rcc.c ****       /* Set the new HSE configuration ---------------------------------------*/
 250:Drivers/STM32F4xx_HAL_Driver/Src/stm32f4xx_hal_rcc.c ****       __HAL_RCC_HSE_CONFIG(RCC_OscInitStruct->HSEState);
  97              		.loc 1 250 7 is_stmt 1 view .LVU18
  98              		.loc 1 250 7 view .LVU19
  99 002c 6368     		ldr	r3, [r4, #4]
 100 002e B3F5803F 		cmp	r3, #65536
 101 0032 4FD0     		beq	.L74
 102              		.loc 1 250 7 discriminator 2 view .LVU20
 103 0034 B3F5A02F 		cmp	r3, #327680
 104 0038 52D0     		beq	.L75
 105              		.loc 1 250 7 discriminator 4 view .LVU21
 106 003a 9D4B     		ldr	r3, .L87
 107 003c 1A68     		ldr	r2, [r3]
 108 003e 22F48032 		bic	r2, r2, #65536
 109 0042 1A60     		str	r2, [r3]
 110              		.loc 1 250 7 discriminator 4 view .LVU22
 111 0044 1A68     		ldr	r2, [r3]
 112 0046 22F48022 		bic	r2, r2, #262144
 113 004a 1A60     		str	r2, [r3]
 114              	.L8:
 251:Drivers/STM32F4xx_HAL_Driver/Src/stm32f4xx_hal_rcc.c **** 
 252:Drivers/STM32F4xx_HAL_Driver/Src/stm32f4xx_hal_rcc.c ****       /* Check the HSE State */
 253:Drivers/STM32F4xx_HAL_Driver/Src/stm32f4xx_hal_rcc.c ****       if((RCC_OscInitStruct->HSEState) != RCC_HSE_OFF)
 115              		.loc 1 253 7 view .LVU23
 116              		.loc 1 253 28 is_stmt 0 view .LVU24
 117 004c 6368     		ldr	r3, [r4, #4]
 118              		.loc 1 253 9 view .LVU25
 119 004e 002B     		cmp	r3, #0
 120 0050 50D0     		beq	.L10
 254:Drivers/STM32F4xx_HAL_Driver/Src/stm32f4xx_hal_rcc.c ****       {
 255:Drivers/STM32F4xx_HAL_Driver/Src/stm32f4xx_hal_rcc.c ****         /* Get Start Tick */
 256:Drivers/STM32F4xx_HAL_Driver/Src/stm32f4xx_hal_rcc.c ****         tickstart = HAL_GetTick();
 121              		.loc 1 256 9 is_stmt 1 view .LVU26
 122              		.loc 1 256 21 is_stmt 0 view .LVU27
 123 0052 FFF7FEFF 		bl	HAL_GetTick
 124              	.LVL1:
 125              		.loc 1 256 21 view .LVU28
 126 0056 0546     		mov	r5, r0
 127              	.LVL2:
 257:Drivers/STM32F4xx_HAL_Driver/Src/stm32f4xx_hal_rcc.c **** 
 258:Drivers/STM32F4xx_HAL_Driver/Src/stm32f4xx_hal_rcc.c ****         /* Wait till HSE is ready */
 259:Drivers/STM32F4xx_HAL_Driver/Src/stm32f4xx_hal_rcc.c ****         while(__HAL_RCC_GET_FLAG(RCC_FLAG_HSERDY) == RESET)
 128              		.loc 1 259 9 is_stmt 1 view .LVU29
 129              	.L11:
 130              		.loc 1 259 15 is_stmt 0 view .LVU30
 131 0058 954B     		ldr	r3, .L87
 132 005a 1B68     		ldr	r3, [r3]
 133              		.loc 1 259 14 view .LVU31
 134 005c 13F4003F 		tst	r3, #131072
 135 0060 14D1     		bne	.L4
 260:Drivers/STM32F4xx_HAL_Driver/Src/stm32f4xx_hal_rcc.c ****         {
 261:Drivers/STM32F4xx_HAL_Driver/Src/stm32f4xx_hal_rcc.c ****           if((HAL_GetTick() - tickstart ) > HSE_TIMEOUT_VALUE)
 136              		.loc 1 261 11 is_stmt 1 view .LVU32
 137              		.loc 1 261 15 is_stmt 0 view .LVU33
 138 0062 FFF7FEFF 		bl	HAL_GetTick
 139              	.LVL3:
ARM GAS  C:\Users\ncer\AppData\Local\Temp\ccYOzh7d.s 			page 8


 140              		.loc 1 261 29 view .LVU34
 141 0066 401B     		subs	r0, r0, r5
 142              		.loc 1 261 13 view .LVU35
 143 0068 6428     		cmp	r0, #100
 144 006a F5D9     		bls	.L11
 262:Drivers/STM32F4xx_HAL_Driver/Src/stm32f4xx_hal_rcc.c ****           {
 263:Drivers/STM32F4xx_HAL_Driver/Src/stm32f4xx_hal_rcc.c ****             return HAL_TIMEOUT;
 145              		.loc 1 263 20 view .LVU36
 146 006c 0320     		movs	r0, #3
 147 006e 8AE1     		b	.L3
 148              	.LVL4:
 149              	.L73:
 240:Drivers/STM32F4xx_HAL_Driver/Src/stm32f4xx_hal_rcc.c ****     {
 150              		.loc 1 240 68 view .LVU37
 151 0070 8F4B     		ldr	r3, .L87
 152 0072 5B68     		ldr	r3, [r3, #4]
 240:Drivers/STM32F4xx_HAL_Driver/Src/stm32f4xx_hal_rcc.c ****     {
 153              		.loc 1 240 60 view .LVU38
 154 0074 13F4800F 		tst	r3, #4194304
 155 0078 D8D0     		beq	.L6
 156              	.L5:
 242:Drivers/STM32F4xx_HAL_Driver/Src/stm32f4xx_hal_rcc.c ****       {
 157              		.loc 1 242 7 is_stmt 1 view .LVU39
 242:Drivers/STM32F4xx_HAL_Driver/Src/stm32f4xx_hal_rcc.c ****       {
 158              		.loc 1 242 11 is_stmt 0 view .LVU40
 159 007a 8D4B     		ldr	r3, .L87
 160 007c 1B68     		ldr	r3, [r3]
 242:Drivers/STM32F4xx_HAL_Driver/Src/stm32f4xx_hal_rcc.c ****       {
 161              		.loc 1 242 9 view .LVU41
 162 007e 13F4003F 		tst	r3, #131072
 163 0082 03D0     		beq	.L4
 242:Drivers/STM32F4xx_HAL_Driver/Src/stm32f4xx_hal_rcc.c ****       {
 164              		.loc 1 242 78 discriminator 1 view .LVU42
 165 0084 6368     		ldr	r3, [r4, #4]
 242:Drivers/STM32F4xx_HAL_Driver/Src/stm32f4xx_hal_rcc.c ****       {
 166              		.loc 1 242 57 discriminator 1 view .LVU43
 167 0086 002B     		cmp	r3, #0
 168 0088 00F07881 		beq	.L76
 169              	.LVL5:
 170              	.L4:
 264:Drivers/STM32F4xx_HAL_Driver/Src/stm32f4xx_hal_rcc.c ****           }
 265:Drivers/STM32F4xx_HAL_Driver/Src/stm32f4xx_hal_rcc.c ****         }
 266:Drivers/STM32F4xx_HAL_Driver/Src/stm32f4xx_hal_rcc.c ****       }
 267:Drivers/STM32F4xx_HAL_Driver/Src/stm32f4xx_hal_rcc.c ****       else
 268:Drivers/STM32F4xx_HAL_Driver/Src/stm32f4xx_hal_rcc.c ****       {
 269:Drivers/STM32F4xx_HAL_Driver/Src/stm32f4xx_hal_rcc.c ****         /* Get Start Tick */
 270:Drivers/STM32F4xx_HAL_Driver/Src/stm32f4xx_hal_rcc.c ****         tickstart = HAL_GetTick();
 271:Drivers/STM32F4xx_HAL_Driver/Src/stm32f4xx_hal_rcc.c **** 
 272:Drivers/STM32F4xx_HAL_Driver/Src/stm32f4xx_hal_rcc.c ****         /* Wait till HSE is bypassed or disabled */
 273:Drivers/STM32F4xx_HAL_Driver/Src/stm32f4xx_hal_rcc.c ****         while(__HAL_RCC_GET_FLAG(RCC_FLAG_HSERDY) != RESET)
 274:Drivers/STM32F4xx_HAL_Driver/Src/stm32f4xx_hal_rcc.c ****         {
 275:Drivers/STM32F4xx_HAL_Driver/Src/stm32f4xx_hal_rcc.c ****           if((HAL_GetTick() - tickstart ) > HSE_TIMEOUT_VALUE)
 276:Drivers/STM32F4xx_HAL_Driver/Src/stm32f4xx_hal_rcc.c ****           {
 277:Drivers/STM32F4xx_HAL_Driver/Src/stm32f4xx_hal_rcc.c ****             return HAL_TIMEOUT;
 278:Drivers/STM32F4xx_HAL_Driver/Src/stm32f4xx_hal_rcc.c ****           }
 279:Drivers/STM32F4xx_HAL_Driver/Src/stm32f4xx_hal_rcc.c ****         }
 280:Drivers/STM32F4xx_HAL_Driver/Src/stm32f4xx_hal_rcc.c ****       }
ARM GAS  C:\Users\ncer\AppData\Local\Temp\ccYOzh7d.s 			page 9


 281:Drivers/STM32F4xx_HAL_Driver/Src/stm32f4xx_hal_rcc.c ****     }
 282:Drivers/STM32F4xx_HAL_Driver/Src/stm32f4xx_hal_rcc.c ****   }
 283:Drivers/STM32F4xx_HAL_Driver/Src/stm32f4xx_hal_rcc.c ****   /*----------------------------- HSI Configuration --------------------------*/
 284:Drivers/STM32F4xx_HAL_Driver/Src/stm32f4xx_hal_rcc.c ****   if(((RCC_OscInitStruct->OscillatorType) & RCC_OSCILLATORTYPE_HSI) == RCC_OSCILLATORTYPE_HSI)
 171              		.loc 1 284 3 is_stmt 1 view .LVU44
 172              		.loc 1 284 25 is_stmt 0 view .LVU45
 173 008c 2368     		ldr	r3, [r4]
 174              		.loc 1 284 5 view .LVU46
 175 008e 13F0020F 		tst	r3, #2
 176 0092 54D0     		beq	.L15
 285:Drivers/STM32F4xx_HAL_Driver/Src/stm32f4xx_hal_rcc.c ****   {
 286:Drivers/STM32F4xx_HAL_Driver/Src/stm32f4xx_hal_rcc.c ****     /* Check the parameters */
 287:Drivers/STM32F4xx_HAL_Driver/Src/stm32f4xx_hal_rcc.c ****     assert_param(IS_RCC_HSI(RCC_OscInitStruct->HSIState));
 177              		.loc 1 287 5 is_stmt 1 view .LVU47
 288:Drivers/STM32F4xx_HAL_Driver/Src/stm32f4xx_hal_rcc.c ****     assert_param(IS_RCC_CALIBRATION_VALUE(RCC_OscInitStruct->HSICalibrationValue));
 178              		.loc 1 288 5 view .LVU48
 289:Drivers/STM32F4xx_HAL_Driver/Src/stm32f4xx_hal_rcc.c **** 
 290:Drivers/STM32F4xx_HAL_Driver/Src/stm32f4xx_hal_rcc.c ****     /* Check if HSI is used as system clock or as PLL source when PLL is selected as system clock *
 291:Drivers/STM32F4xx_HAL_Driver/Src/stm32f4xx_hal_rcc.c ****     if((__HAL_RCC_GET_SYSCLK_SOURCE() == RCC_CFGR_SWS_HSI) ||\
 179              		.loc 1 291 5 view .LVU49
 180              		.loc 1 291 9 is_stmt 0 view .LVU50
 181 0094 864B     		ldr	r3, .L87
 182 0096 9B68     		ldr	r3, [r3, #8]
 183              		.loc 1 291 7 view .LVU51
 184 0098 13F00C0F 		tst	r3, #12
 185 009c 3ED0     		beq	.L16
 292:Drivers/STM32F4xx_HAL_Driver/Src/stm32f4xx_hal_rcc.c ****       ((__HAL_RCC_GET_SYSCLK_SOURCE() == RCC_CFGR_SWS_PLL) && ((RCC->PLLCFGR & RCC_PLLCFGR_PLLSRC) 
 186              		.loc 1 292 9 discriminator 1 view .LVU52
 187 009e 844B     		ldr	r3, .L87
 188 00a0 9B68     		ldr	r3, [r3, #8]
 189 00a2 03F00C03 		and	r3, r3, #12
 291:Drivers/STM32F4xx_HAL_Driver/Src/stm32f4xx_hal_rcc.c ****       ((__HAL_RCC_GET_SYSCLK_SOURCE() == RCC_CFGR_SWS_PLL) && ((RCC->PLLCFGR & RCC_PLLCFGR_PLLSRC) 
 190              		.loc 1 291 60 discriminator 1 view .LVU53
 191 00a6 082B     		cmp	r3, #8
 192 00a8 33D0     		beq	.L77
 193              	.L17:
 293:Drivers/STM32F4xx_HAL_Driver/Src/stm32f4xx_hal_rcc.c ****     {
 294:Drivers/STM32F4xx_HAL_Driver/Src/stm32f4xx_hal_rcc.c ****       /* When HSI is used as system clock it will not disabled */
 295:Drivers/STM32F4xx_HAL_Driver/Src/stm32f4xx_hal_rcc.c ****       if((__HAL_RCC_GET_FLAG(RCC_FLAG_HSIRDY) != RESET) && (RCC_OscInitStruct->HSIState != RCC_HSI_
 296:Drivers/STM32F4xx_HAL_Driver/Src/stm32f4xx_hal_rcc.c ****       {
 297:Drivers/STM32F4xx_HAL_Driver/Src/stm32f4xx_hal_rcc.c ****         return HAL_ERROR;
 298:Drivers/STM32F4xx_HAL_Driver/Src/stm32f4xx_hal_rcc.c ****       }
 299:Drivers/STM32F4xx_HAL_Driver/Src/stm32f4xx_hal_rcc.c ****       /* Otherwise, just the calibration is allowed */
 300:Drivers/STM32F4xx_HAL_Driver/Src/stm32f4xx_hal_rcc.c ****       else
 301:Drivers/STM32F4xx_HAL_Driver/Src/stm32f4xx_hal_rcc.c ****       {
 302:Drivers/STM32F4xx_HAL_Driver/Src/stm32f4xx_hal_rcc.c ****         /* Adjusts the Internal High Speed oscillator (HSI) calibration value.*/
 303:Drivers/STM32F4xx_HAL_Driver/Src/stm32f4xx_hal_rcc.c ****         __HAL_RCC_HSI_CALIBRATIONVALUE_ADJUST(RCC_OscInitStruct->HSICalibrationValue);
 304:Drivers/STM32F4xx_HAL_Driver/Src/stm32f4xx_hal_rcc.c ****       }
 305:Drivers/STM32F4xx_HAL_Driver/Src/stm32f4xx_hal_rcc.c ****     }
 306:Drivers/STM32F4xx_HAL_Driver/Src/stm32f4xx_hal_rcc.c ****     else
 307:Drivers/STM32F4xx_HAL_Driver/Src/stm32f4xx_hal_rcc.c ****     {
 308:Drivers/STM32F4xx_HAL_Driver/Src/stm32f4xx_hal_rcc.c ****       /* Check the HSI State */
 309:Drivers/STM32F4xx_HAL_Driver/Src/stm32f4xx_hal_rcc.c ****       if((RCC_OscInitStruct->HSIState)!= RCC_HSI_OFF)
 194              		.loc 1 309 7 is_stmt 1 view .LVU54
 195              		.loc 1 309 28 is_stmt 0 view .LVU55
 196 00aa E368     		ldr	r3, [r4, #12]
 197              		.loc 1 309 9 view .LVU56
ARM GAS  C:\Users\ncer\AppData\Local\Temp\ccYOzh7d.s 			page 10


 198 00ac 002B     		cmp	r3, #0
 199 00ae 67D0     		beq	.L19
 310:Drivers/STM32F4xx_HAL_Driver/Src/stm32f4xx_hal_rcc.c ****       {
 311:Drivers/STM32F4xx_HAL_Driver/Src/stm32f4xx_hal_rcc.c ****         /* Enable the Internal High Speed oscillator (HSI). */
 312:Drivers/STM32F4xx_HAL_Driver/Src/stm32f4xx_hal_rcc.c ****         __HAL_RCC_HSI_ENABLE();
 200              		.loc 1 312 9 is_stmt 1 view .LVU57
 201 00b0 804B     		ldr	r3, .L87+4
 202 00b2 0122     		movs	r2, #1
 203 00b4 1A60     		str	r2, [r3]
 313:Drivers/STM32F4xx_HAL_Driver/Src/stm32f4xx_hal_rcc.c **** 
 314:Drivers/STM32F4xx_HAL_Driver/Src/stm32f4xx_hal_rcc.c ****         /* Get Start Tick*/
 315:Drivers/STM32F4xx_HAL_Driver/Src/stm32f4xx_hal_rcc.c ****         tickstart = HAL_GetTick();
 204              		.loc 1 315 9 view .LVU58
 205              		.loc 1 315 21 is_stmt 0 view .LVU59
 206 00b6 FFF7FEFF 		bl	HAL_GetTick
 207              	.LVL6:
 208 00ba 0546     		mov	r5, r0
 209              	.LVL7:
 316:Drivers/STM32F4xx_HAL_Driver/Src/stm32f4xx_hal_rcc.c **** 
 317:Drivers/STM32F4xx_HAL_Driver/Src/stm32f4xx_hal_rcc.c ****         /* Wait till HSI is ready */
 318:Drivers/STM32F4xx_HAL_Driver/Src/stm32f4xx_hal_rcc.c ****         while(__HAL_RCC_GET_FLAG(RCC_FLAG_HSIRDY) == RESET)
 210              		.loc 1 318 9 is_stmt 1 view .LVU60
 211              	.L20:
 212              		.loc 1 318 15 is_stmt 0 view .LVU61
 213 00bc 7C4B     		ldr	r3, .L87
 214 00be 1B68     		ldr	r3, [r3]
 215              		.loc 1 318 14 view .LVU62
 216 00c0 13F0020F 		tst	r3, #2
 217 00c4 53D1     		bne	.L78
 319:Drivers/STM32F4xx_HAL_Driver/Src/stm32f4xx_hal_rcc.c ****         {
 320:Drivers/STM32F4xx_HAL_Driver/Src/stm32f4xx_hal_rcc.c ****           if((HAL_GetTick() - tickstart ) > HSI_TIMEOUT_VALUE)
 218              		.loc 1 320 11 is_stmt 1 view .LVU63
 219              		.loc 1 320 15 is_stmt 0 view .LVU64
 220 00c6 FFF7FEFF 		bl	HAL_GetTick
 221              	.LVL8:
 222              		.loc 1 320 29 view .LVU65
 223 00ca 401B     		subs	r0, r0, r5
 224              		.loc 1 320 13 view .LVU66
 225 00cc 0228     		cmp	r0, #2
 226 00ce F5D9     		bls	.L20
 321:Drivers/STM32F4xx_HAL_Driver/Src/stm32f4xx_hal_rcc.c ****           {
 322:Drivers/STM32F4xx_HAL_Driver/Src/stm32f4xx_hal_rcc.c ****             return HAL_TIMEOUT;
 227              		.loc 1 322 20 view .LVU67
 228 00d0 0320     		movs	r0, #3
 229 00d2 58E1     		b	.L3
 230              	.LVL9:
 231              	.L74:
 250:Drivers/STM32F4xx_HAL_Driver/Src/stm32f4xx_hal_rcc.c **** 
 232              		.loc 1 250 7 is_stmt 1 discriminator 1 view .LVU68
 233 00d4 764A     		ldr	r2, .L87
 234 00d6 1368     		ldr	r3, [r2]
 235 00d8 43F48033 		orr	r3, r3, #65536
 236 00dc 1360     		str	r3, [r2]
 237 00de B5E7     		b	.L8
 238              	.L75:
 250:Drivers/STM32F4xx_HAL_Driver/Src/stm32f4xx_hal_rcc.c **** 
 239              		.loc 1 250 7 discriminator 3 view .LVU69
ARM GAS  C:\Users\ncer\AppData\Local\Temp\ccYOzh7d.s 			page 11


 240 00e0 734B     		ldr	r3, .L87
 241 00e2 1A68     		ldr	r2, [r3]
 242 00e4 42F48022 		orr	r2, r2, #262144
 243 00e8 1A60     		str	r2, [r3]
 250:Drivers/STM32F4xx_HAL_Driver/Src/stm32f4xx_hal_rcc.c **** 
 244              		.loc 1 250 7 discriminator 3 view .LVU70
 245 00ea 1A68     		ldr	r2, [r3]
 246 00ec 42F48032 		orr	r2, r2, #65536
 247 00f0 1A60     		str	r2, [r3]
 248 00f2 ABE7     		b	.L8
 249              	.L10:
 270:Drivers/STM32F4xx_HAL_Driver/Src/stm32f4xx_hal_rcc.c **** 
 250              		.loc 1 270 9 view .LVU71
 270:Drivers/STM32F4xx_HAL_Driver/Src/stm32f4xx_hal_rcc.c **** 
 251              		.loc 1 270 21 is_stmt 0 view .LVU72
 252 00f4 FFF7FEFF 		bl	HAL_GetTick
 253              	.LVL10:
 270:Drivers/STM32F4xx_HAL_Driver/Src/stm32f4xx_hal_rcc.c **** 
 254              		.loc 1 270 21 view .LVU73
 255 00f8 0546     		mov	r5, r0
 256              	.LVL11:
 273:Drivers/STM32F4xx_HAL_Driver/Src/stm32f4xx_hal_rcc.c ****         {
 257              		.loc 1 273 9 is_stmt 1 view .LVU74
 258              	.L13:
 273:Drivers/STM32F4xx_HAL_Driver/Src/stm32f4xx_hal_rcc.c ****         {
 259              		.loc 1 273 15 is_stmt 0 view .LVU75
 260 00fa 6D4B     		ldr	r3, .L87
 261 00fc 1B68     		ldr	r3, [r3]
 273:Drivers/STM32F4xx_HAL_Driver/Src/stm32f4xx_hal_rcc.c ****         {
 262              		.loc 1 273 14 view .LVU76
 263 00fe 13F4003F 		tst	r3, #131072
 264 0102 C3D0     		beq	.L4
 275:Drivers/STM32F4xx_HAL_Driver/Src/stm32f4xx_hal_rcc.c ****           {
 265              		.loc 1 275 11 is_stmt 1 view .LVU77
 275:Drivers/STM32F4xx_HAL_Driver/Src/stm32f4xx_hal_rcc.c ****           {
 266              		.loc 1 275 15 is_stmt 0 view .LVU78
 267 0104 FFF7FEFF 		bl	HAL_GetTick
 268              	.LVL12:
 275:Drivers/STM32F4xx_HAL_Driver/Src/stm32f4xx_hal_rcc.c ****           {
 269              		.loc 1 275 29 view .LVU79
 270 0108 401B     		subs	r0, r0, r5
 275:Drivers/STM32F4xx_HAL_Driver/Src/stm32f4xx_hal_rcc.c ****           {
 271              		.loc 1 275 13 view .LVU80
 272 010a 6428     		cmp	r0, #100
 273 010c F5D9     		bls	.L13
 277:Drivers/STM32F4xx_HAL_Driver/Src/stm32f4xx_hal_rcc.c ****           }
 274              		.loc 1 277 20 view .LVU81
 275 010e 0320     		movs	r0, #3
 276 0110 39E1     		b	.L3
 277              	.LVL13:
 278              	.L77:
 292:Drivers/STM32F4xx_HAL_Driver/Src/stm32f4xx_hal_rcc.c ****     {
 279              		.loc 1 292 68 view .LVU82
 280 0112 674B     		ldr	r3, .L87
 281 0114 5B68     		ldr	r3, [r3, #4]
 292:Drivers/STM32F4xx_HAL_Driver/Src/stm32f4xx_hal_rcc.c ****     {
 282              		.loc 1 292 60 view .LVU83
ARM GAS  C:\Users\ncer\AppData\Local\Temp\ccYOzh7d.s 			page 12


 283 0116 13F4800F 		tst	r3, #4194304
 284 011a C6D1     		bne	.L17
 285              	.L16:
 295:Drivers/STM32F4xx_HAL_Driver/Src/stm32f4xx_hal_rcc.c ****       {
 286              		.loc 1 295 7 is_stmt 1 view .LVU84
 295:Drivers/STM32F4xx_HAL_Driver/Src/stm32f4xx_hal_rcc.c ****       {
 287              		.loc 1 295 11 is_stmt 0 view .LVU85
 288 011c 644B     		ldr	r3, .L87
 289 011e 1B68     		ldr	r3, [r3]
 295:Drivers/STM32F4xx_HAL_Driver/Src/stm32f4xx_hal_rcc.c ****       {
 290              		.loc 1 295 9 view .LVU86
 291 0120 13F0020F 		tst	r3, #2
 292 0124 03D0     		beq	.L18
 295:Drivers/STM32F4xx_HAL_Driver/Src/stm32f4xx_hal_rcc.c ****       {
 293              		.loc 1 295 78 discriminator 1 view .LVU87
 294 0126 E368     		ldr	r3, [r4, #12]
 295:Drivers/STM32F4xx_HAL_Driver/Src/stm32f4xx_hal_rcc.c ****       {
 295              		.loc 1 295 57 discriminator 1 view .LVU88
 296 0128 012B     		cmp	r3, #1
 297 012a 40F02981 		bne	.L55
 298              	.L18:
 303:Drivers/STM32F4xx_HAL_Driver/Src/stm32f4xx_hal_rcc.c ****       }
 299              		.loc 1 303 9 is_stmt 1 view .LVU89
 300 012e 604A     		ldr	r2, .L87
 301 0130 1368     		ldr	r3, [r2]
 302 0132 23F0F803 		bic	r3, r3, #248
 303 0136 2169     		ldr	r1, [r4, #16]
 304 0138 43EAC103 		orr	r3, r3, r1, lsl #3
 305 013c 1360     		str	r3, [r2]
 306              	.L15:
 323:Drivers/STM32F4xx_HAL_Driver/Src/stm32f4xx_hal_rcc.c ****           }
 324:Drivers/STM32F4xx_HAL_Driver/Src/stm32f4xx_hal_rcc.c ****         }
 325:Drivers/STM32F4xx_HAL_Driver/Src/stm32f4xx_hal_rcc.c **** 
 326:Drivers/STM32F4xx_HAL_Driver/Src/stm32f4xx_hal_rcc.c ****         /* Adjusts the Internal High Speed oscillator (HSI) calibration value. */
 327:Drivers/STM32F4xx_HAL_Driver/Src/stm32f4xx_hal_rcc.c ****         __HAL_RCC_HSI_CALIBRATIONVALUE_ADJUST(RCC_OscInitStruct->HSICalibrationValue);
 328:Drivers/STM32F4xx_HAL_Driver/Src/stm32f4xx_hal_rcc.c ****       }
 329:Drivers/STM32F4xx_HAL_Driver/Src/stm32f4xx_hal_rcc.c ****       else
 330:Drivers/STM32F4xx_HAL_Driver/Src/stm32f4xx_hal_rcc.c ****       {
 331:Drivers/STM32F4xx_HAL_Driver/Src/stm32f4xx_hal_rcc.c ****         /* Disable the Internal High Speed oscillator (HSI). */
 332:Drivers/STM32F4xx_HAL_Driver/Src/stm32f4xx_hal_rcc.c ****         __HAL_RCC_HSI_DISABLE();
 333:Drivers/STM32F4xx_HAL_Driver/Src/stm32f4xx_hal_rcc.c **** 
 334:Drivers/STM32F4xx_HAL_Driver/Src/stm32f4xx_hal_rcc.c ****         /* Get Start Tick*/
 335:Drivers/STM32F4xx_HAL_Driver/Src/stm32f4xx_hal_rcc.c ****         tickstart = HAL_GetTick();
 336:Drivers/STM32F4xx_HAL_Driver/Src/stm32f4xx_hal_rcc.c **** 
 337:Drivers/STM32F4xx_HAL_Driver/Src/stm32f4xx_hal_rcc.c ****         /* Wait till HSI is ready */
 338:Drivers/STM32F4xx_HAL_Driver/Src/stm32f4xx_hal_rcc.c ****         while(__HAL_RCC_GET_FLAG(RCC_FLAG_HSIRDY) != RESET)
 339:Drivers/STM32F4xx_HAL_Driver/Src/stm32f4xx_hal_rcc.c ****         {
 340:Drivers/STM32F4xx_HAL_Driver/Src/stm32f4xx_hal_rcc.c ****           if((HAL_GetTick() - tickstart ) > HSI_TIMEOUT_VALUE)
 341:Drivers/STM32F4xx_HAL_Driver/Src/stm32f4xx_hal_rcc.c ****           {
 342:Drivers/STM32F4xx_HAL_Driver/Src/stm32f4xx_hal_rcc.c ****             return HAL_TIMEOUT;
 343:Drivers/STM32F4xx_HAL_Driver/Src/stm32f4xx_hal_rcc.c ****           }
 344:Drivers/STM32F4xx_HAL_Driver/Src/stm32f4xx_hal_rcc.c ****         }
 345:Drivers/STM32F4xx_HAL_Driver/Src/stm32f4xx_hal_rcc.c ****       }
 346:Drivers/STM32F4xx_HAL_Driver/Src/stm32f4xx_hal_rcc.c ****     }
 347:Drivers/STM32F4xx_HAL_Driver/Src/stm32f4xx_hal_rcc.c ****   }
 348:Drivers/STM32F4xx_HAL_Driver/Src/stm32f4xx_hal_rcc.c ****   /*------------------------------ LSI Configuration -------------------------*/
 349:Drivers/STM32F4xx_HAL_Driver/Src/stm32f4xx_hal_rcc.c ****   if(((RCC_OscInitStruct->OscillatorType) & RCC_OSCILLATORTYPE_LSI) == RCC_OSCILLATORTYPE_LSI)
ARM GAS  C:\Users\ncer\AppData\Local\Temp\ccYOzh7d.s 			page 13


 307              		.loc 1 349 3 view .LVU90
 308              		.loc 1 349 25 is_stmt 0 view .LVU91
 309 013e 2368     		ldr	r3, [r4]
 310              		.loc 1 349 5 view .LVU92
 311 0140 13F0080F 		tst	r3, #8
 312 0144 40D0     		beq	.L24
 350:Drivers/STM32F4xx_HAL_Driver/Src/stm32f4xx_hal_rcc.c ****   {
 351:Drivers/STM32F4xx_HAL_Driver/Src/stm32f4xx_hal_rcc.c ****     /* Check the parameters */
 352:Drivers/STM32F4xx_HAL_Driver/Src/stm32f4xx_hal_rcc.c ****     assert_param(IS_RCC_LSI(RCC_OscInitStruct->LSIState));
 313              		.loc 1 352 5 is_stmt 1 view .LVU93
 353:Drivers/STM32F4xx_HAL_Driver/Src/stm32f4xx_hal_rcc.c **** 
 354:Drivers/STM32F4xx_HAL_Driver/Src/stm32f4xx_hal_rcc.c ****     /* Check the LSI State */
 355:Drivers/STM32F4xx_HAL_Driver/Src/stm32f4xx_hal_rcc.c ****     if((RCC_OscInitStruct->LSIState)!= RCC_LSI_OFF)
 314              		.loc 1 355 5 view .LVU94
 315              		.loc 1 355 26 is_stmt 0 view .LVU95
 316 0146 6369     		ldr	r3, [r4, #20]
 317              		.loc 1 355 7 view .LVU96
 318 0148 63B3     		cbz	r3, .L25
 356:Drivers/STM32F4xx_HAL_Driver/Src/stm32f4xx_hal_rcc.c ****     {
 357:Drivers/STM32F4xx_HAL_Driver/Src/stm32f4xx_hal_rcc.c ****       /* Enable the Internal Low Speed oscillator (LSI). */
 358:Drivers/STM32F4xx_HAL_Driver/Src/stm32f4xx_hal_rcc.c ****       __HAL_RCC_LSI_ENABLE();
 319              		.loc 1 358 7 is_stmt 1 view .LVU97
 320 014a 5B4B     		ldr	r3, .L87+8
 321 014c 0122     		movs	r2, #1
 322 014e 1A60     		str	r2, [r3]
 359:Drivers/STM32F4xx_HAL_Driver/Src/stm32f4xx_hal_rcc.c **** 
 360:Drivers/STM32F4xx_HAL_Driver/Src/stm32f4xx_hal_rcc.c ****       /* Get Start Tick*/
 361:Drivers/STM32F4xx_HAL_Driver/Src/stm32f4xx_hal_rcc.c ****       tickstart = HAL_GetTick();
 323              		.loc 1 361 7 view .LVU98
 324              		.loc 1 361 19 is_stmt 0 view .LVU99
 325 0150 FFF7FEFF 		bl	HAL_GetTick
 326              	.LVL14:
 327 0154 0546     		mov	r5, r0
 328              	.LVL15:
 362:Drivers/STM32F4xx_HAL_Driver/Src/stm32f4xx_hal_rcc.c **** 
 363:Drivers/STM32F4xx_HAL_Driver/Src/stm32f4xx_hal_rcc.c ****       /* Wait till LSI is ready */
 364:Drivers/STM32F4xx_HAL_Driver/Src/stm32f4xx_hal_rcc.c ****       while(__HAL_RCC_GET_FLAG(RCC_FLAG_LSIRDY) == RESET)
 329              		.loc 1 364 7 is_stmt 1 view .LVU100
 330              	.L26:
 331              		.loc 1 364 13 is_stmt 0 view .LVU101
 332 0156 564B     		ldr	r3, .L87
 333 0158 5B6F     		ldr	r3, [r3, #116]
 334              		.loc 1 364 12 view .LVU102
 335 015a 13F0020F 		tst	r3, #2
 336 015e 33D1     		bne	.L24
 365:Drivers/STM32F4xx_HAL_Driver/Src/stm32f4xx_hal_rcc.c ****       {
 366:Drivers/STM32F4xx_HAL_Driver/Src/stm32f4xx_hal_rcc.c ****         if((HAL_GetTick() - tickstart ) > LSI_TIMEOUT_VALUE)
 337              		.loc 1 366 9 is_stmt 1 view .LVU103
 338              		.loc 1 366 13 is_stmt 0 view .LVU104
 339 0160 FFF7FEFF 		bl	HAL_GetTick
 340              	.LVL16:
 341              		.loc 1 366 27 view .LVU105
 342 0164 401B     		subs	r0, r0, r5
 343              		.loc 1 366 11 view .LVU106
 344 0166 0228     		cmp	r0, #2
 345 0168 F5D9     		bls	.L26
 367:Drivers/STM32F4xx_HAL_Driver/Src/stm32f4xx_hal_rcc.c ****         {
ARM GAS  C:\Users\ncer\AppData\Local\Temp\ccYOzh7d.s 			page 14


 368:Drivers/STM32F4xx_HAL_Driver/Src/stm32f4xx_hal_rcc.c ****           return HAL_TIMEOUT;
 346              		.loc 1 368 18 view .LVU107
 347 016a 0320     		movs	r0, #3
 348 016c 0BE1     		b	.L3
 349              	.L78:
 327:Drivers/STM32F4xx_HAL_Driver/Src/stm32f4xx_hal_rcc.c ****       }
 350              		.loc 1 327 9 is_stmt 1 view .LVU108
 351 016e 504A     		ldr	r2, .L87
 352 0170 1368     		ldr	r3, [r2]
 353 0172 23F0F803 		bic	r3, r3, #248
 354 0176 2169     		ldr	r1, [r4, #16]
 355 0178 43EAC103 		orr	r3, r3, r1, lsl #3
 356 017c 1360     		str	r3, [r2]
 357 017e DEE7     		b	.L15
 358              	.LVL17:
 359              	.L19:
 332:Drivers/STM32F4xx_HAL_Driver/Src/stm32f4xx_hal_rcc.c **** 
 360              		.loc 1 332 9 view .LVU109
 361 0180 4C4B     		ldr	r3, .L87+4
 362 0182 0022     		movs	r2, #0
 363 0184 1A60     		str	r2, [r3]
 335:Drivers/STM32F4xx_HAL_Driver/Src/stm32f4xx_hal_rcc.c **** 
 364              		.loc 1 335 9 view .LVU110
 335:Drivers/STM32F4xx_HAL_Driver/Src/stm32f4xx_hal_rcc.c **** 
 365              		.loc 1 335 21 is_stmt 0 view .LVU111
 366 0186 FFF7FEFF 		bl	HAL_GetTick
 367              	.LVL18:
 368 018a 0546     		mov	r5, r0
 369              	.LVL19:
 338:Drivers/STM32F4xx_HAL_Driver/Src/stm32f4xx_hal_rcc.c ****         {
 370              		.loc 1 338 9 is_stmt 1 view .LVU112
 371              	.L22:
 338:Drivers/STM32F4xx_HAL_Driver/Src/stm32f4xx_hal_rcc.c ****         {
 372              		.loc 1 338 15 is_stmt 0 view .LVU113
 373 018c 484B     		ldr	r3, .L87
 374 018e 1B68     		ldr	r3, [r3]
 338:Drivers/STM32F4xx_HAL_Driver/Src/stm32f4xx_hal_rcc.c ****         {
 375              		.loc 1 338 14 view .LVU114
 376 0190 13F0020F 		tst	r3, #2
 377 0194 D3D0     		beq	.L15
 340:Drivers/STM32F4xx_HAL_Driver/Src/stm32f4xx_hal_rcc.c ****           {
 378              		.loc 1 340 11 is_stmt 1 view .LVU115
 340:Drivers/STM32F4xx_HAL_Driver/Src/stm32f4xx_hal_rcc.c ****           {
 379              		.loc 1 340 15 is_stmt 0 view .LVU116
 380 0196 FFF7FEFF 		bl	HAL_GetTick
 381              	.LVL20:
 340:Drivers/STM32F4xx_HAL_Driver/Src/stm32f4xx_hal_rcc.c ****           {
 382              		.loc 1 340 29 view .LVU117
 383 019a 401B     		subs	r0, r0, r5
 340:Drivers/STM32F4xx_HAL_Driver/Src/stm32f4xx_hal_rcc.c ****           {
 384              		.loc 1 340 13 view .LVU118
 385 019c 0228     		cmp	r0, #2
 386 019e F5D9     		bls	.L22
 342:Drivers/STM32F4xx_HAL_Driver/Src/stm32f4xx_hal_rcc.c ****           }
 387              		.loc 1 342 20 view .LVU119
 388 01a0 0320     		movs	r0, #3
 389 01a2 F0E0     		b	.L3
ARM GAS  C:\Users\ncer\AppData\Local\Temp\ccYOzh7d.s 			page 15


 390              	.LVL21:
 391              	.L25:
 369:Drivers/STM32F4xx_HAL_Driver/Src/stm32f4xx_hal_rcc.c ****         }
 370:Drivers/STM32F4xx_HAL_Driver/Src/stm32f4xx_hal_rcc.c ****       }
 371:Drivers/STM32F4xx_HAL_Driver/Src/stm32f4xx_hal_rcc.c ****     }
 372:Drivers/STM32F4xx_HAL_Driver/Src/stm32f4xx_hal_rcc.c ****     else
 373:Drivers/STM32F4xx_HAL_Driver/Src/stm32f4xx_hal_rcc.c ****     {
 374:Drivers/STM32F4xx_HAL_Driver/Src/stm32f4xx_hal_rcc.c ****       /* Disable the Internal Low Speed oscillator (LSI). */
 375:Drivers/STM32F4xx_HAL_Driver/Src/stm32f4xx_hal_rcc.c ****       __HAL_RCC_LSI_DISABLE();
 392              		.loc 1 375 7 is_stmt 1 view .LVU120
 393 01a4 444B     		ldr	r3, .L87+8
 394 01a6 0022     		movs	r2, #0
 395 01a8 1A60     		str	r2, [r3]
 376:Drivers/STM32F4xx_HAL_Driver/Src/stm32f4xx_hal_rcc.c **** 
 377:Drivers/STM32F4xx_HAL_Driver/Src/stm32f4xx_hal_rcc.c ****       /* Get Start Tick */
 378:Drivers/STM32F4xx_HAL_Driver/Src/stm32f4xx_hal_rcc.c ****       tickstart = HAL_GetTick();
 396              		.loc 1 378 7 view .LVU121
 397              		.loc 1 378 19 is_stmt 0 view .LVU122
 398 01aa FFF7FEFF 		bl	HAL_GetTick
 399              	.LVL22:
 400 01ae 0546     		mov	r5, r0
 401              	.LVL23:
 379:Drivers/STM32F4xx_HAL_Driver/Src/stm32f4xx_hal_rcc.c **** 
 380:Drivers/STM32F4xx_HAL_Driver/Src/stm32f4xx_hal_rcc.c ****       /* Wait till LSI is ready */
 381:Drivers/STM32F4xx_HAL_Driver/Src/stm32f4xx_hal_rcc.c ****       while(__HAL_RCC_GET_FLAG(RCC_FLAG_LSIRDY) != RESET)
 402              		.loc 1 381 7 is_stmt 1 view .LVU123
 403              	.L28:
 404              		.loc 1 381 13 is_stmt 0 view .LVU124
 405 01b0 3F4B     		ldr	r3, .L87
 406 01b2 5B6F     		ldr	r3, [r3, #116]
 407              		.loc 1 381 12 view .LVU125
 408 01b4 13F0020F 		tst	r3, #2
 409 01b8 06D0     		beq	.L24
 382:Drivers/STM32F4xx_HAL_Driver/Src/stm32f4xx_hal_rcc.c ****       {
 383:Drivers/STM32F4xx_HAL_Driver/Src/stm32f4xx_hal_rcc.c ****         if((HAL_GetTick() - tickstart ) > LSI_TIMEOUT_VALUE)
 410              		.loc 1 383 9 is_stmt 1 view .LVU126
 411              		.loc 1 383 13 is_stmt 0 view .LVU127
 412 01ba FFF7FEFF 		bl	HAL_GetTick
 413              	.LVL24:
 414              		.loc 1 383 27 view .LVU128
 415 01be 401B     		subs	r0, r0, r5
 416              		.loc 1 383 11 view .LVU129
 417 01c0 0228     		cmp	r0, #2
 418 01c2 F5D9     		bls	.L28
 384:Drivers/STM32F4xx_HAL_Driver/Src/stm32f4xx_hal_rcc.c ****         {
 385:Drivers/STM32F4xx_HAL_Driver/Src/stm32f4xx_hal_rcc.c ****           return HAL_TIMEOUT;
 419              		.loc 1 385 18 view .LVU130
 420 01c4 0320     		movs	r0, #3
 421 01c6 DEE0     		b	.L3
 422              	.LVL25:
 423              	.L24:
 386:Drivers/STM32F4xx_HAL_Driver/Src/stm32f4xx_hal_rcc.c ****         }
 387:Drivers/STM32F4xx_HAL_Driver/Src/stm32f4xx_hal_rcc.c ****       }
 388:Drivers/STM32F4xx_HAL_Driver/Src/stm32f4xx_hal_rcc.c ****     }
 389:Drivers/STM32F4xx_HAL_Driver/Src/stm32f4xx_hal_rcc.c ****   }
 390:Drivers/STM32F4xx_HAL_Driver/Src/stm32f4xx_hal_rcc.c ****   /*------------------------------ LSE Configuration -------------------------*/
 391:Drivers/STM32F4xx_HAL_Driver/Src/stm32f4xx_hal_rcc.c ****   if(((RCC_OscInitStruct->OscillatorType) & RCC_OSCILLATORTYPE_LSE) == RCC_OSCILLATORTYPE_LSE)
ARM GAS  C:\Users\ncer\AppData\Local\Temp\ccYOzh7d.s 			page 16


 424              		.loc 1 391 3 is_stmt 1 view .LVU131
 425              		.loc 1 391 25 is_stmt 0 view .LVU132
 426 01c8 2368     		ldr	r3, [r4]
 427              		.loc 1 391 5 view .LVU133
 428 01ca 13F0040F 		tst	r3, #4
 429 01ce 78D0     		beq	.L30
 430              	.LBB2:
 392:Drivers/STM32F4xx_HAL_Driver/Src/stm32f4xx_hal_rcc.c ****   {
 393:Drivers/STM32F4xx_HAL_Driver/Src/stm32f4xx_hal_rcc.c ****     FlagStatus       pwrclkchanged = RESET;
 431              		.loc 1 393 5 is_stmt 1 view .LVU134
 432              	.LVL26:
 394:Drivers/STM32F4xx_HAL_Driver/Src/stm32f4xx_hal_rcc.c **** 
 395:Drivers/STM32F4xx_HAL_Driver/Src/stm32f4xx_hal_rcc.c ****     /* Check the parameters */
 396:Drivers/STM32F4xx_HAL_Driver/Src/stm32f4xx_hal_rcc.c ****     assert_param(IS_RCC_LSE(RCC_OscInitStruct->LSEState));
 433              		.loc 1 396 5 view .LVU135
 397:Drivers/STM32F4xx_HAL_Driver/Src/stm32f4xx_hal_rcc.c **** 
 398:Drivers/STM32F4xx_HAL_Driver/Src/stm32f4xx_hal_rcc.c ****     /* Update LSE configuration in Backup Domain control register    */
 399:Drivers/STM32F4xx_HAL_Driver/Src/stm32f4xx_hal_rcc.c ****     /* Requires to enable write access to Backup Domain of necessary */
 400:Drivers/STM32F4xx_HAL_Driver/Src/stm32f4xx_hal_rcc.c ****     if(__HAL_RCC_PWR_IS_CLK_DISABLED())
 434              		.loc 1 400 5 view .LVU136
 435              		.loc 1 400 8 is_stmt 0 view .LVU137
 436 01d0 374B     		ldr	r3, .L87
 437 01d2 1B6C     		ldr	r3, [r3, #64]
 438              		.loc 1 400 7 view .LVU138
 439 01d4 13F0805F 		tst	r3, #268435456
 440 01d8 33D1     		bne	.L60
 401:Drivers/STM32F4xx_HAL_Driver/Src/stm32f4xx_hal_rcc.c ****     {
 402:Drivers/STM32F4xx_HAL_Driver/Src/stm32f4xx_hal_rcc.c ****       __HAL_RCC_PWR_CLK_ENABLE();
 441              		.loc 1 402 7 is_stmt 1 view .LVU139
 442              	.LBB3:
 443              		.loc 1 402 7 view .LVU140
 444 01da 0023     		movs	r3, #0
 445 01dc 0193     		str	r3, [sp, #4]
 446              		.loc 1 402 7 view .LVU141
 447 01de 344B     		ldr	r3, .L87
 448 01e0 1A6C     		ldr	r2, [r3, #64]
 449 01e2 42F08052 		orr	r2, r2, #268435456
 450 01e6 1A64     		str	r2, [r3, #64]
 451              		.loc 1 402 7 view .LVU142
 452 01e8 1B6C     		ldr	r3, [r3, #64]
 453 01ea 03F08053 		and	r3, r3, #268435456
 454 01ee 0193     		str	r3, [sp, #4]
 455              		.loc 1 402 7 view .LVU143
 456 01f0 019B     		ldr	r3, [sp, #4]
 457              	.LBE3:
 403:Drivers/STM32F4xx_HAL_Driver/Src/stm32f4xx_hal_rcc.c ****       pwrclkchanged = SET;
 458              		.loc 1 403 7 view .LVU144
 459              	.LVL27:
 460              		.loc 1 403 21 is_stmt 0 view .LVU145
 461 01f2 0125     		movs	r5, #1
 462              	.LVL28:
 463              	.L31:
 404:Drivers/STM32F4xx_HAL_Driver/Src/stm32f4xx_hal_rcc.c ****     }
 405:Drivers/STM32F4xx_HAL_Driver/Src/stm32f4xx_hal_rcc.c **** 
 406:Drivers/STM32F4xx_HAL_Driver/Src/stm32f4xx_hal_rcc.c ****     if(HAL_IS_BIT_CLR(PWR->CR, PWR_CR_DBP))
 464              		.loc 1 406 5 is_stmt 1 view .LVU146
 465              		.loc 1 406 8 is_stmt 0 view .LVU147
ARM GAS  C:\Users\ncer\AppData\Local\Temp\ccYOzh7d.s 			page 17


 466 01f4 314B     		ldr	r3, .L87+12
 467 01f6 1B68     		ldr	r3, [r3]
 468              		.loc 1 406 7 view .LVU148
 469 01f8 13F4807F 		tst	r3, #256
 470 01fc 23D0     		beq	.L79
 471              	.L32:
 407:Drivers/STM32F4xx_HAL_Driver/Src/stm32f4xx_hal_rcc.c ****     {
 408:Drivers/STM32F4xx_HAL_Driver/Src/stm32f4xx_hal_rcc.c ****       /* Enable write access to Backup domain */
 409:Drivers/STM32F4xx_HAL_Driver/Src/stm32f4xx_hal_rcc.c ****       SET_BIT(PWR->CR, PWR_CR_DBP);
 410:Drivers/STM32F4xx_HAL_Driver/Src/stm32f4xx_hal_rcc.c **** 
 411:Drivers/STM32F4xx_HAL_Driver/Src/stm32f4xx_hal_rcc.c ****       /* Wait for Backup domain Write protection disable */
 412:Drivers/STM32F4xx_HAL_Driver/Src/stm32f4xx_hal_rcc.c ****       tickstart = HAL_GetTick();
 413:Drivers/STM32F4xx_HAL_Driver/Src/stm32f4xx_hal_rcc.c **** 
 414:Drivers/STM32F4xx_HAL_Driver/Src/stm32f4xx_hal_rcc.c ****       while(HAL_IS_BIT_CLR(PWR->CR, PWR_CR_DBP))
 415:Drivers/STM32F4xx_HAL_Driver/Src/stm32f4xx_hal_rcc.c ****       {
 416:Drivers/STM32F4xx_HAL_Driver/Src/stm32f4xx_hal_rcc.c ****         if((HAL_GetTick() - tickstart) > RCC_DBP_TIMEOUT_VALUE)
 417:Drivers/STM32F4xx_HAL_Driver/Src/stm32f4xx_hal_rcc.c ****         {
 418:Drivers/STM32F4xx_HAL_Driver/Src/stm32f4xx_hal_rcc.c ****           return HAL_TIMEOUT;
 419:Drivers/STM32F4xx_HAL_Driver/Src/stm32f4xx_hal_rcc.c ****         }
 420:Drivers/STM32F4xx_HAL_Driver/Src/stm32f4xx_hal_rcc.c ****       }
 421:Drivers/STM32F4xx_HAL_Driver/Src/stm32f4xx_hal_rcc.c ****     }
 422:Drivers/STM32F4xx_HAL_Driver/Src/stm32f4xx_hal_rcc.c **** 
 423:Drivers/STM32F4xx_HAL_Driver/Src/stm32f4xx_hal_rcc.c ****     /* Set the new LSE configuration -----------------------------------------*/
 424:Drivers/STM32F4xx_HAL_Driver/Src/stm32f4xx_hal_rcc.c ****     __HAL_RCC_LSE_CONFIG(RCC_OscInitStruct->LSEState);
 472              		.loc 1 424 5 is_stmt 1 view .LVU149
 473              		.loc 1 424 5 view .LVU150
 474 01fe A368     		ldr	r3, [r4, #8]
 475 0200 012B     		cmp	r3, #1
 476 0202 34D0     		beq	.L80
 477              		.loc 1 424 5 discriminator 2 view .LVU151
 478 0204 052B     		cmp	r3, #5
 479 0206 38D0     		beq	.L81
 480              		.loc 1 424 5 discriminator 4 view .LVU152
 481 0208 294B     		ldr	r3, .L87
 482 020a 1A6F     		ldr	r2, [r3, #112]
 483 020c 22F00102 		bic	r2, r2, #1
 484 0210 1A67     		str	r2, [r3, #112]
 485              		.loc 1 424 5 discriminator 4 view .LVU153
 486 0212 1A6F     		ldr	r2, [r3, #112]
 487 0214 22F00402 		bic	r2, r2, #4
 488 0218 1A67     		str	r2, [r3, #112]
 489              	.L36:
 425:Drivers/STM32F4xx_HAL_Driver/Src/stm32f4xx_hal_rcc.c ****     /* Check the LSE State */
 426:Drivers/STM32F4xx_HAL_Driver/Src/stm32f4xx_hal_rcc.c ****     if((RCC_OscInitStruct->LSEState) != RCC_LSE_OFF)
 490              		.loc 1 426 5 view .LVU154
 491              		.loc 1 426 26 is_stmt 0 view .LVU155
 492 021a A368     		ldr	r3, [r4, #8]
 493              		.loc 1 426 7 view .LVU156
 494 021c 002B     		cmp	r3, #0
 495 021e 36D0     		beq	.L38
 427:Drivers/STM32F4xx_HAL_Driver/Src/stm32f4xx_hal_rcc.c ****     {
 428:Drivers/STM32F4xx_HAL_Driver/Src/stm32f4xx_hal_rcc.c ****       /* Get Start Tick*/
 429:Drivers/STM32F4xx_HAL_Driver/Src/stm32f4xx_hal_rcc.c ****       tickstart = HAL_GetTick();
 496              		.loc 1 429 7 is_stmt 1 view .LVU157
 497              		.loc 1 429 19 is_stmt 0 view .LVU158
 498 0220 FFF7FEFF 		bl	HAL_GetTick
 499              	.LVL29:
ARM GAS  C:\Users\ncer\AppData\Local\Temp\ccYOzh7d.s 			page 18


 500 0224 0646     		mov	r6, r0
 501              	.LVL30:
 430:Drivers/STM32F4xx_HAL_Driver/Src/stm32f4xx_hal_rcc.c **** 
 431:Drivers/STM32F4xx_HAL_Driver/Src/stm32f4xx_hal_rcc.c ****       /* Wait till LSE is ready */
 432:Drivers/STM32F4xx_HAL_Driver/Src/stm32f4xx_hal_rcc.c ****       while(__HAL_RCC_GET_FLAG(RCC_FLAG_LSERDY) == RESET)
 502              		.loc 1 432 7 is_stmt 1 view .LVU159
 503              	.L39:
 504              		.loc 1 432 13 is_stmt 0 view .LVU160
 505 0226 224B     		ldr	r3, .L87
 506 0228 1B6F     		ldr	r3, [r3, #112]
 507              		.loc 1 432 12 view .LVU161
 508 022a 13F0020F 		tst	r3, #2
 509 022e 47D1     		bne	.L41
 433:Drivers/STM32F4xx_HAL_Driver/Src/stm32f4xx_hal_rcc.c ****       {
 434:Drivers/STM32F4xx_HAL_Driver/Src/stm32f4xx_hal_rcc.c ****         if((HAL_GetTick() - tickstart ) > RCC_LSE_TIMEOUT_VALUE)
 510              		.loc 1 434 9 is_stmt 1 view .LVU162
 511              		.loc 1 434 13 is_stmt 0 view .LVU163
 512 0230 FFF7FEFF 		bl	HAL_GetTick
 513              	.LVL31:
 514              		.loc 1 434 27 view .LVU164
 515 0234 801B     		subs	r0, r0, r6
 516              		.loc 1 434 11 view .LVU165
 517 0236 41F28833 		movw	r3, #5000
 518 023a 9842     		cmp	r0, r3
 519 023c F3D9     		bls	.L39
 435:Drivers/STM32F4xx_HAL_Driver/Src/stm32f4xx_hal_rcc.c ****         {
 436:Drivers/STM32F4xx_HAL_Driver/Src/stm32f4xx_hal_rcc.c ****           return HAL_TIMEOUT;
 520              		.loc 1 436 18 view .LVU166
 521 023e 0320     		movs	r0, #3
 522 0240 A1E0     		b	.L3
 523              	.LVL32:
 524              	.L60:
 393:Drivers/STM32F4xx_HAL_Driver/Src/stm32f4xx_hal_rcc.c **** 
 525              		.loc 1 393 22 view .LVU167
 526 0242 0025     		movs	r5, #0
 527 0244 D6E7     		b	.L31
 528              	.LVL33:
 529              	.L79:
 409:Drivers/STM32F4xx_HAL_Driver/Src/stm32f4xx_hal_rcc.c **** 
 530              		.loc 1 409 7 is_stmt 1 view .LVU168
 531 0246 1D4A     		ldr	r2, .L87+12
 532 0248 1368     		ldr	r3, [r2]
 533 024a 43F48073 		orr	r3, r3, #256
 534 024e 1360     		str	r3, [r2]
 412:Drivers/STM32F4xx_HAL_Driver/Src/stm32f4xx_hal_rcc.c **** 
 535              		.loc 1 412 7 view .LVU169
 412:Drivers/STM32F4xx_HAL_Driver/Src/stm32f4xx_hal_rcc.c **** 
 536              		.loc 1 412 19 is_stmt 0 view .LVU170
 537 0250 FFF7FEFF 		bl	HAL_GetTick
 538              	.LVL34:
 539 0254 0646     		mov	r6, r0
 540              	.LVL35:
 414:Drivers/STM32F4xx_HAL_Driver/Src/stm32f4xx_hal_rcc.c ****       {
 541              		.loc 1 414 7 is_stmt 1 view .LVU171
 542              	.L33:
 414:Drivers/STM32F4xx_HAL_Driver/Src/stm32f4xx_hal_rcc.c ****       {
 543              		.loc 1 414 13 is_stmt 0 view .LVU172
ARM GAS  C:\Users\ncer\AppData\Local\Temp\ccYOzh7d.s 			page 19


 544 0256 194B     		ldr	r3, .L87+12
 545 0258 1B68     		ldr	r3, [r3]
 414:Drivers/STM32F4xx_HAL_Driver/Src/stm32f4xx_hal_rcc.c ****       {
 546              		.loc 1 414 12 view .LVU173
 547 025a 13F4807F 		tst	r3, #256
 548 025e CED1     		bne	.L32
 416:Drivers/STM32F4xx_HAL_Driver/Src/stm32f4xx_hal_rcc.c ****         {
 549              		.loc 1 416 9 is_stmt 1 view .LVU174
 416:Drivers/STM32F4xx_HAL_Driver/Src/stm32f4xx_hal_rcc.c ****         {
 550              		.loc 1 416 13 is_stmt 0 view .LVU175
 551 0260 FFF7FEFF 		bl	HAL_GetTick
 552              	.LVL36:
 416:Drivers/STM32F4xx_HAL_Driver/Src/stm32f4xx_hal_rcc.c ****         {
 553              		.loc 1 416 27 view .LVU176
 554 0264 801B     		subs	r0, r0, r6
 416:Drivers/STM32F4xx_HAL_Driver/Src/stm32f4xx_hal_rcc.c ****         {
 555              		.loc 1 416 11 view .LVU177
 556 0266 0228     		cmp	r0, #2
 557 0268 F5D9     		bls	.L33
 418:Drivers/STM32F4xx_HAL_Driver/Src/stm32f4xx_hal_rcc.c ****         }
 558              		.loc 1 418 18 view .LVU178
 559 026a 0320     		movs	r0, #3
 560 026c 8BE0     		b	.L3
 561              	.LVL37:
 562              	.L80:
 424:Drivers/STM32F4xx_HAL_Driver/Src/stm32f4xx_hal_rcc.c ****     /* Check the LSE State */
 563              		.loc 1 424 5 is_stmt 1 discriminator 1 view .LVU179
 564 026e 104A     		ldr	r2, .L87
 565 0270 136F     		ldr	r3, [r2, #112]
 566 0272 43F00103 		orr	r3, r3, #1
 567 0276 1367     		str	r3, [r2, #112]
 568 0278 CFE7     		b	.L36
 569              	.L81:
 424:Drivers/STM32F4xx_HAL_Driver/Src/stm32f4xx_hal_rcc.c ****     /* Check the LSE State */
 570              		.loc 1 424 5 discriminator 3 view .LVU180
 571 027a 0D4B     		ldr	r3, .L87
 572 027c 1A6F     		ldr	r2, [r3, #112]
 573 027e 42F00402 		orr	r2, r2, #4
 574 0282 1A67     		str	r2, [r3, #112]
 424:Drivers/STM32F4xx_HAL_Driver/Src/stm32f4xx_hal_rcc.c ****     /* Check the LSE State */
 575              		.loc 1 424 5 discriminator 3 view .LVU181
 576 0284 1A6F     		ldr	r2, [r3, #112]
 577 0286 42F00102 		orr	r2, r2, #1
 578 028a 1A67     		str	r2, [r3, #112]
 579 028c C5E7     		b	.L36
 580              	.L38:
 437:Drivers/STM32F4xx_HAL_Driver/Src/stm32f4xx_hal_rcc.c ****         }
 438:Drivers/STM32F4xx_HAL_Driver/Src/stm32f4xx_hal_rcc.c ****       }
 439:Drivers/STM32F4xx_HAL_Driver/Src/stm32f4xx_hal_rcc.c ****     }
 440:Drivers/STM32F4xx_HAL_Driver/Src/stm32f4xx_hal_rcc.c ****     else
 441:Drivers/STM32F4xx_HAL_Driver/Src/stm32f4xx_hal_rcc.c ****     {
 442:Drivers/STM32F4xx_HAL_Driver/Src/stm32f4xx_hal_rcc.c ****       /* Get Start Tick */
 443:Drivers/STM32F4xx_HAL_Driver/Src/stm32f4xx_hal_rcc.c ****       tickstart = HAL_GetTick();
 581              		.loc 1 443 7 view .LVU182
 582              		.loc 1 443 19 is_stmt 0 view .LVU183
 583 028e FFF7FEFF 		bl	HAL_GetTick
 584              	.LVL38:
ARM GAS  C:\Users\ncer\AppData\Local\Temp\ccYOzh7d.s 			page 20


 585 0292 0646     		mov	r6, r0
 586              	.LVL39:
 444:Drivers/STM32F4xx_HAL_Driver/Src/stm32f4xx_hal_rcc.c **** 
 445:Drivers/STM32F4xx_HAL_Driver/Src/stm32f4xx_hal_rcc.c ****       /* Wait till LSE is ready */
 446:Drivers/STM32F4xx_HAL_Driver/Src/stm32f4xx_hal_rcc.c ****       while(__HAL_RCC_GET_FLAG(RCC_FLAG_LSERDY) != RESET)
 587              		.loc 1 446 7 is_stmt 1 view .LVU184
 588              	.L42:
 589              		.loc 1 446 13 is_stmt 0 view .LVU185
 590 0294 064B     		ldr	r3, .L87
 591 0296 1B6F     		ldr	r3, [r3, #112]
 592              		.loc 1 446 12 view .LVU186
 593 0298 13F0020F 		tst	r3, #2
 594 029c 10D0     		beq	.L41
 447:Drivers/STM32F4xx_HAL_Driver/Src/stm32f4xx_hal_rcc.c ****       {
 448:Drivers/STM32F4xx_HAL_Driver/Src/stm32f4xx_hal_rcc.c ****         if((HAL_GetTick() - tickstart ) > RCC_LSE_TIMEOUT_VALUE)
 595              		.loc 1 448 9 is_stmt 1 view .LVU187
 596              		.loc 1 448 13 is_stmt 0 view .LVU188
 597 029e FFF7FEFF 		bl	HAL_GetTick
 598              	.LVL40:
 599              		.loc 1 448 27 view .LVU189
 600 02a2 801B     		subs	r0, r0, r6
 601              		.loc 1 448 11 view .LVU190
 602 02a4 41F28833 		movw	r3, #5000
 603 02a8 9842     		cmp	r0, r3
 604 02aa F3D9     		bls	.L42
 449:Drivers/STM32F4xx_HAL_Driver/Src/stm32f4xx_hal_rcc.c ****         {
 450:Drivers/STM32F4xx_HAL_Driver/Src/stm32f4xx_hal_rcc.c ****           return HAL_TIMEOUT;
 605              		.loc 1 450 18 view .LVU191
 606 02ac 0320     		movs	r0, #3
 607 02ae 6AE0     		b	.L3
 608              	.L88:
 609              		.align	2
 610              	.L87:
 611 02b0 00380240 		.word	1073887232
 612 02b4 00004742 		.word	1111949312
 613 02b8 800E4742 		.word	1111953024
 614 02bc 00700040 		.word	1073770496
 615              	.L41:
 451:Drivers/STM32F4xx_HAL_Driver/Src/stm32f4xx_hal_rcc.c ****         }
 452:Drivers/STM32F4xx_HAL_Driver/Src/stm32f4xx_hal_rcc.c ****       }
 453:Drivers/STM32F4xx_HAL_Driver/Src/stm32f4xx_hal_rcc.c ****     }
 454:Drivers/STM32F4xx_HAL_Driver/Src/stm32f4xx_hal_rcc.c **** 
 455:Drivers/STM32F4xx_HAL_Driver/Src/stm32f4xx_hal_rcc.c ****     /* Restore clock configuration if changed */
 456:Drivers/STM32F4xx_HAL_Driver/Src/stm32f4xx_hal_rcc.c ****     if(pwrclkchanged == SET)
 616              		.loc 1 456 5 is_stmt 1 view .LVU192
 617              		.loc 1 456 7 is_stmt 0 view .LVU193
 618 02c0 E5B9     		cbnz	r5, .L82
 619              	.LVL41:
 620              	.L30:
 621              		.loc 1 456 7 view .LVU194
 622              	.LBE2:
 457:Drivers/STM32F4xx_HAL_Driver/Src/stm32f4xx_hal_rcc.c ****     {
 458:Drivers/STM32F4xx_HAL_Driver/Src/stm32f4xx_hal_rcc.c ****       __HAL_RCC_PWR_CLK_DISABLE();
 459:Drivers/STM32F4xx_HAL_Driver/Src/stm32f4xx_hal_rcc.c ****     }
 460:Drivers/STM32F4xx_HAL_Driver/Src/stm32f4xx_hal_rcc.c ****   }
 461:Drivers/STM32F4xx_HAL_Driver/Src/stm32f4xx_hal_rcc.c ****   /*-------------------------------- PLL Configuration -----------------------*/
 462:Drivers/STM32F4xx_HAL_Driver/Src/stm32f4xx_hal_rcc.c ****   /* Check the parameters */
ARM GAS  C:\Users\ncer\AppData\Local\Temp\ccYOzh7d.s 			page 21


 463:Drivers/STM32F4xx_HAL_Driver/Src/stm32f4xx_hal_rcc.c ****   assert_param(IS_RCC_PLL(RCC_OscInitStruct->PLL.PLLState));
 623              		.loc 1 463 3 is_stmt 1 view .LVU195
 464:Drivers/STM32F4xx_HAL_Driver/Src/stm32f4xx_hal_rcc.c ****   if ((RCC_OscInitStruct->PLL.PLLState) != RCC_PLL_NONE)
 624              		.loc 1 464 3 view .LVU196
 625              		.loc 1 464 30 is_stmt 0 view .LVU197
 626 02c2 A369     		ldr	r3, [r4, #24]
 627              		.loc 1 464 6 view .LVU198
 628 02c4 002B     		cmp	r3, #0
 629 02c6 5DD0     		beq	.L64
 465:Drivers/STM32F4xx_HAL_Driver/Src/stm32f4xx_hal_rcc.c ****   {
 466:Drivers/STM32F4xx_HAL_Driver/Src/stm32f4xx_hal_rcc.c ****     /* Check if the PLL is used as system clock or not */
 467:Drivers/STM32F4xx_HAL_Driver/Src/stm32f4xx_hal_rcc.c ****     if(__HAL_RCC_GET_SYSCLK_SOURCE() != RCC_CFGR_SWS_PLL)
 630              		.loc 1 467 5 is_stmt 1 view .LVU199
 631              		.loc 1 467 8 is_stmt 0 view .LVU200
 632 02c8 314A     		ldr	r2, .L89
 633 02ca 9268     		ldr	r2, [r2, #8]
 634 02cc 02F00C02 		and	r2, r2, #12
 635              		.loc 1 467 7 view .LVU201
 636 02d0 082A     		cmp	r2, #8
 637 02d2 5AD0     		beq	.L65
 468:Drivers/STM32F4xx_HAL_Driver/Src/stm32f4xx_hal_rcc.c ****     {
 469:Drivers/STM32F4xx_HAL_Driver/Src/stm32f4xx_hal_rcc.c ****       if((RCC_OscInitStruct->PLL.PLLState) == RCC_PLL_ON)
 638              		.loc 1 469 7 is_stmt 1 view .LVU202
 639              		.loc 1 469 9 is_stmt 0 view .LVU203
 640 02d4 022B     		cmp	r3, #2
 641 02d6 17D0     		beq	.L83
 470:Drivers/STM32F4xx_HAL_Driver/Src/stm32f4xx_hal_rcc.c ****       {
 471:Drivers/STM32F4xx_HAL_Driver/Src/stm32f4xx_hal_rcc.c ****         /* Check the parameters */
 472:Drivers/STM32F4xx_HAL_Driver/Src/stm32f4xx_hal_rcc.c ****         assert_param(IS_RCC_PLLSOURCE(RCC_OscInitStruct->PLL.PLLSource));
 473:Drivers/STM32F4xx_HAL_Driver/Src/stm32f4xx_hal_rcc.c ****         assert_param(IS_RCC_PLLM_VALUE(RCC_OscInitStruct->PLL.PLLM));
 474:Drivers/STM32F4xx_HAL_Driver/Src/stm32f4xx_hal_rcc.c ****         assert_param(IS_RCC_PLLN_VALUE(RCC_OscInitStruct->PLL.PLLN));
 475:Drivers/STM32F4xx_HAL_Driver/Src/stm32f4xx_hal_rcc.c ****         assert_param(IS_RCC_PLLP_VALUE(RCC_OscInitStruct->PLL.PLLP));
 476:Drivers/STM32F4xx_HAL_Driver/Src/stm32f4xx_hal_rcc.c ****         assert_param(IS_RCC_PLLQ_VALUE(RCC_OscInitStruct->PLL.PLLQ));
 477:Drivers/STM32F4xx_HAL_Driver/Src/stm32f4xx_hal_rcc.c **** 
 478:Drivers/STM32F4xx_HAL_Driver/Src/stm32f4xx_hal_rcc.c ****         /* Disable the main PLL. */
 479:Drivers/STM32F4xx_HAL_Driver/Src/stm32f4xx_hal_rcc.c ****         __HAL_RCC_PLL_DISABLE();
 480:Drivers/STM32F4xx_HAL_Driver/Src/stm32f4xx_hal_rcc.c **** 
 481:Drivers/STM32F4xx_HAL_Driver/Src/stm32f4xx_hal_rcc.c ****         /* Get Start Tick */
 482:Drivers/STM32F4xx_HAL_Driver/Src/stm32f4xx_hal_rcc.c ****         tickstart = HAL_GetTick();
 483:Drivers/STM32F4xx_HAL_Driver/Src/stm32f4xx_hal_rcc.c **** 
 484:Drivers/STM32F4xx_HAL_Driver/Src/stm32f4xx_hal_rcc.c ****         /* Wait till PLL is ready */
 485:Drivers/STM32F4xx_HAL_Driver/Src/stm32f4xx_hal_rcc.c ****         while(__HAL_RCC_GET_FLAG(RCC_FLAG_PLLRDY) != RESET)
 486:Drivers/STM32F4xx_HAL_Driver/Src/stm32f4xx_hal_rcc.c ****         {
 487:Drivers/STM32F4xx_HAL_Driver/Src/stm32f4xx_hal_rcc.c ****           if((HAL_GetTick() - tickstart ) > PLL_TIMEOUT_VALUE)
 488:Drivers/STM32F4xx_HAL_Driver/Src/stm32f4xx_hal_rcc.c ****           {
 489:Drivers/STM32F4xx_HAL_Driver/Src/stm32f4xx_hal_rcc.c ****             return HAL_TIMEOUT;
 490:Drivers/STM32F4xx_HAL_Driver/Src/stm32f4xx_hal_rcc.c ****           }
 491:Drivers/STM32F4xx_HAL_Driver/Src/stm32f4xx_hal_rcc.c ****         }
 492:Drivers/STM32F4xx_HAL_Driver/Src/stm32f4xx_hal_rcc.c **** 
 493:Drivers/STM32F4xx_HAL_Driver/Src/stm32f4xx_hal_rcc.c ****         /* Configure the main PLL clock source, multiplication and division factors. */
 494:Drivers/STM32F4xx_HAL_Driver/Src/stm32f4xx_hal_rcc.c ****         WRITE_REG(RCC->PLLCFGR, (RCC_OscInitStruct->PLL.PLLSource                                  
 495:Drivers/STM32F4xx_HAL_Driver/Src/stm32f4xx_hal_rcc.c ****                                  RCC_OscInitStruct->PLL.PLLM                                       
 496:Drivers/STM32F4xx_HAL_Driver/Src/stm32f4xx_hal_rcc.c ****                                  (RCC_OscInitStruct->PLL.PLLN << RCC_PLLCFGR_PLLN_Pos)             
 497:Drivers/STM32F4xx_HAL_Driver/Src/stm32f4xx_hal_rcc.c ****                                  (((RCC_OscInitStruct->PLL.PLLP >> 1U) - 1U) << RCC_PLLCFGR_PLLP_Po
 498:Drivers/STM32F4xx_HAL_Driver/Src/stm32f4xx_hal_rcc.c ****                                  (RCC_OscInitStruct->PLL.PLLQ << RCC_PLLCFGR_PLLQ_Pos)));
 499:Drivers/STM32F4xx_HAL_Driver/Src/stm32f4xx_hal_rcc.c ****         /* Enable the main PLL. */
 500:Drivers/STM32F4xx_HAL_Driver/Src/stm32f4xx_hal_rcc.c ****         __HAL_RCC_PLL_ENABLE();
ARM GAS  C:\Users\ncer\AppData\Local\Temp\ccYOzh7d.s 			page 22


 501:Drivers/STM32F4xx_HAL_Driver/Src/stm32f4xx_hal_rcc.c **** 
 502:Drivers/STM32F4xx_HAL_Driver/Src/stm32f4xx_hal_rcc.c ****         /* Get Start Tick */
 503:Drivers/STM32F4xx_HAL_Driver/Src/stm32f4xx_hal_rcc.c ****         tickstart = HAL_GetTick();
 504:Drivers/STM32F4xx_HAL_Driver/Src/stm32f4xx_hal_rcc.c **** 
 505:Drivers/STM32F4xx_HAL_Driver/Src/stm32f4xx_hal_rcc.c ****         /* Wait till PLL is ready */
 506:Drivers/STM32F4xx_HAL_Driver/Src/stm32f4xx_hal_rcc.c ****         while(__HAL_RCC_GET_FLAG(RCC_FLAG_PLLRDY) == RESET)
 507:Drivers/STM32F4xx_HAL_Driver/Src/stm32f4xx_hal_rcc.c ****         {
 508:Drivers/STM32F4xx_HAL_Driver/Src/stm32f4xx_hal_rcc.c ****           if((HAL_GetTick() - tickstart ) > PLL_TIMEOUT_VALUE)
 509:Drivers/STM32F4xx_HAL_Driver/Src/stm32f4xx_hal_rcc.c ****           {
 510:Drivers/STM32F4xx_HAL_Driver/Src/stm32f4xx_hal_rcc.c ****             return HAL_TIMEOUT;
 511:Drivers/STM32F4xx_HAL_Driver/Src/stm32f4xx_hal_rcc.c ****           }
 512:Drivers/STM32F4xx_HAL_Driver/Src/stm32f4xx_hal_rcc.c ****         }
 513:Drivers/STM32F4xx_HAL_Driver/Src/stm32f4xx_hal_rcc.c ****       }
 514:Drivers/STM32F4xx_HAL_Driver/Src/stm32f4xx_hal_rcc.c ****       else
 515:Drivers/STM32F4xx_HAL_Driver/Src/stm32f4xx_hal_rcc.c ****       {
 516:Drivers/STM32F4xx_HAL_Driver/Src/stm32f4xx_hal_rcc.c ****         /* Disable the main PLL. */
 517:Drivers/STM32F4xx_HAL_Driver/Src/stm32f4xx_hal_rcc.c ****         __HAL_RCC_PLL_DISABLE();
 642              		.loc 1 517 9 is_stmt 1 view .LVU204
 643 02d8 2E4B     		ldr	r3, .L89+4
 644 02da 0022     		movs	r2, #0
 645 02dc 1A60     		str	r2, [r3]
 518:Drivers/STM32F4xx_HAL_Driver/Src/stm32f4xx_hal_rcc.c **** 
 519:Drivers/STM32F4xx_HAL_Driver/Src/stm32f4xx_hal_rcc.c ****         /* Get Start Tick */
 520:Drivers/STM32F4xx_HAL_Driver/Src/stm32f4xx_hal_rcc.c ****         tickstart = HAL_GetTick();
 646              		.loc 1 520 9 view .LVU205
 647              		.loc 1 520 21 is_stmt 0 view .LVU206
 648 02de FFF7FEFF 		bl	HAL_GetTick
 649              	.LVL42:
 650 02e2 0446     		mov	r4, r0
 651              	.LVL43:
 521:Drivers/STM32F4xx_HAL_Driver/Src/stm32f4xx_hal_rcc.c **** 
 522:Drivers/STM32F4xx_HAL_Driver/Src/stm32f4xx_hal_rcc.c ****         /* Wait till PLL is ready */
 523:Drivers/STM32F4xx_HAL_Driver/Src/stm32f4xx_hal_rcc.c ****         while(__HAL_RCC_GET_FLAG(RCC_FLAG_PLLRDY) != RESET)
 652              		.loc 1 523 9 is_stmt 1 view .LVU207
 653              	.L49:
 654              		.loc 1 523 15 is_stmt 0 view .LVU208
 655 02e4 2A4B     		ldr	r3, .L89
 656 02e6 1B68     		ldr	r3, [r3]
 657              		.loc 1 523 14 view .LVU209
 658 02e8 13F0007F 		tst	r3, #33554432
 659 02ec 42D0     		beq	.L84
 524:Drivers/STM32F4xx_HAL_Driver/Src/stm32f4xx_hal_rcc.c ****         {
 525:Drivers/STM32F4xx_HAL_Driver/Src/stm32f4xx_hal_rcc.c ****           if((HAL_GetTick() - tickstart ) > PLL_TIMEOUT_VALUE)
 660              		.loc 1 525 11 is_stmt 1 view .LVU210
 661              		.loc 1 525 15 is_stmt 0 view .LVU211
 662 02ee FFF7FEFF 		bl	HAL_GetTick
 663              	.LVL44:
 664              		.loc 1 525 29 view .LVU212
 665 02f2 001B     		subs	r0, r0, r4
 666              		.loc 1 525 13 view .LVU213
 667 02f4 0228     		cmp	r0, #2
 668 02f6 F5D9     		bls	.L49
 526:Drivers/STM32F4xx_HAL_Driver/Src/stm32f4xx_hal_rcc.c ****           {
 527:Drivers/STM32F4xx_HAL_Driver/Src/stm32f4xx_hal_rcc.c ****             return HAL_TIMEOUT;
 669              		.loc 1 527 20 view .LVU214
 670 02f8 0320     		movs	r0, #3
 671 02fa 44E0     		b	.L3
ARM GAS  C:\Users\ncer\AppData\Local\Temp\ccYOzh7d.s 			page 23


 672              	.LVL45:
 673              	.L82:
 674              	.LBB4:
 458:Drivers/STM32F4xx_HAL_Driver/Src/stm32f4xx_hal_rcc.c ****     }
 675              		.loc 1 458 7 is_stmt 1 view .LVU215
 676 02fc 244A     		ldr	r2, .L89
 677 02fe 136C     		ldr	r3, [r2, #64]
 678 0300 23F08053 		bic	r3, r3, #268435456
 679 0304 1364     		str	r3, [r2, #64]
 680 0306 DCE7     		b	.L30
 681              	.LVL46:
 682              	.L83:
 458:Drivers/STM32F4xx_HAL_Driver/Src/stm32f4xx_hal_rcc.c ****     }
 683              		.loc 1 458 7 is_stmt 0 view .LVU216
 684              	.LBE4:
 472:Drivers/STM32F4xx_HAL_Driver/Src/stm32f4xx_hal_rcc.c ****         assert_param(IS_RCC_PLLM_VALUE(RCC_OscInitStruct->PLL.PLLM));
 685              		.loc 1 472 9 is_stmt 1 view .LVU217
 473:Drivers/STM32F4xx_HAL_Driver/Src/stm32f4xx_hal_rcc.c ****         assert_param(IS_RCC_PLLN_VALUE(RCC_OscInitStruct->PLL.PLLN));
 686              		.loc 1 473 9 view .LVU218
 474:Drivers/STM32F4xx_HAL_Driver/Src/stm32f4xx_hal_rcc.c ****         assert_param(IS_RCC_PLLP_VALUE(RCC_OscInitStruct->PLL.PLLP));
 687              		.loc 1 474 9 view .LVU219
 475:Drivers/STM32F4xx_HAL_Driver/Src/stm32f4xx_hal_rcc.c ****         assert_param(IS_RCC_PLLQ_VALUE(RCC_OscInitStruct->PLL.PLLQ));
 688              		.loc 1 475 9 view .LVU220
 476:Drivers/STM32F4xx_HAL_Driver/Src/stm32f4xx_hal_rcc.c **** 
 689              		.loc 1 476 9 view .LVU221
 479:Drivers/STM32F4xx_HAL_Driver/Src/stm32f4xx_hal_rcc.c **** 
 690              		.loc 1 479 9 view .LVU222
 691 0308 224B     		ldr	r3, .L89+4
 692 030a 0022     		movs	r2, #0
 693 030c 1A60     		str	r2, [r3]
 482:Drivers/STM32F4xx_HAL_Driver/Src/stm32f4xx_hal_rcc.c **** 
 694              		.loc 1 482 9 view .LVU223
 482:Drivers/STM32F4xx_HAL_Driver/Src/stm32f4xx_hal_rcc.c **** 
 695              		.loc 1 482 21 is_stmt 0 view .LVU224
 696 030e FFF7FEFF 		bl	HAL_GetTick
 697              	.LVL47:
 698 0312 0546     		mov	r5, r0
 699              	.LVL48:
 485:Drivers/STM32F4xx_HAL_Driver/Src/stm32f4xx_hal_rcc.c ****         {
 700              		.loc 1 485 9 is_stmt 1 view .LVU225
 701              	.L45:
 485:Drivers/STM32F4xx_HAL_Driver/Src/stm32f4xx_hal_rcc.c ****         {
 702              		.loc 1 485 15 is_stmt 0 view .LVU226
 703 0314 1E4B     		ldr	r3, .L89
 704 0316 1B68     		ldr	r3, [r3]
 485:Drivers/STM32F4xx_HAL_Driver/Src/stm32f4xx_hal_rcc.c ****         {
 705              		.loc 1 485 14 view .LVU227
 706 0318 13F0007F 		tst	r3, #33554432
 707 031c 06D0     		beq	.L85
 487:Drivers/STM32F4xx_HAL_Driver/Src/stm32f4xx_hal_rcc.c ****           {
 708              		.loc 1 487 11 is_stmt 1 view .LVU228
 487:Drivers/STM32F4xx_HAL_Driver/Src/stm32f4xx_hal_rcc.c ****           {
 709              		.loc 1 487 15 is_stmt 0 view .LVU229
 710 031e FFF7FEFF 		bl	HAL_GetTick
 711              	.LVL49:
 487:Drivers/STM32F4xx_HAL_Driver/Src/stm32f4xx_hal_rcc.c ****           {
 712              		.loc 1 487 29 view .LVU230
ARM GAS  C:\Users\ncer\AppData\Local\Temp\ccYOzh7d.s 			page 24


 713 0322 401B     		subs	r0, r0, r5
 487:Drivers/STM32F4xx_HAL_Driver/Src/stm32f4xx_hal_rcc.c ****           {
 714              		.loc 1 487 13 view .LVU231
 715 0324 0228     		cmp	r0, #2
 716 0326 F5D9     		bls	.L45
 489:Drivers/STM32F4xx_HAL_Driver/Src/stm32f4xx_hal_rcc.c ****           }
 717              		.loc 1 489 20 view .LVU232
 718 0328 0320     		movs	r0, #3
 719 032a 2CE0     		b	.L3
 720              	.L85:
 494:Drivers/STM32F4xx_HAL_Driver/Src/stm32f4xx_hal_rcc.c ****                                  RCC_OscInitStruct->PLL.PLLM                                       
 721              		.loc 1 494 9 is_stmt 1 view .LVU233
 722 032c E369     		ldr	r3, [r4, #28]
 723 032e 226A     		ldr	r2, [r4, #32]
 724 0330 1343     		orrs	r3, r3, r2
 725 0332 626A     		ldr	r2, [r4, #36]
 726 0334 43EA8213 		orr	r3, r3, r2, lsl #6
 727 0338 A26A     		ldr	r2, [r4, #40]
 728 033a 5208     		lsrs	r2, r2, #1
 729 033c 013A     		subs	r2, r2, #1
 730 033e 43EA0243 		orr	r3, r3, r2, lsl #16
 731 0342 E26A     		ldr	r2, [r4, #44]
 732 0344 43EA0263 		orr	r3, r3, r2, lsl #24
 733 0348 114A     		ldr	r2, .L89
 734 034a 5360     		str	r3, [r2, #4]
 500:Drivers/STM32F4xx_HAL_Driver/Src/stm32f4xx_hal_rcc.c **** 
 735              		.loc 1 500 9 view .LVU234
 736 034c 114B     		ldr	r3, .L89+4
 737 034e 0122     		movs	r2, #1
 738 0350 1A60     		str	r2, [r3]
 503:Drivers/STM32F4xx_HAL_Driver/Src/stm32f4xx_hal_rcc.c **** 
 739              		.loc 1 503 9 view .LVU235
 503:Drivers/STM32F4xx_HAL_Driver/Src/stm32f4xx_hal_rcc.c **** 
 740              		.loc 1 503 21 is_stmt 0 view .LVU236
 741 0352 FFF7FEFF 		bl	HAL_GetTick
 742              	.LVL50:
 743 0356 0446     		mov	r4, r0
 744              	.LVL51:
 506:Drivers/STM32F4xx_HAL_Driver/Src/stm32f4xx_hal_rcc.c ****         {
 745              		.loc 1 506 9 is_stmt 1 view .LVU237
 746              	.L47:
 506:Drivers/STM32F4xx_HAL_Driver/Src/stm32f4xx_hal_rcc.c ****         {
 747              		.loc 1 506 15 is_stmt 0 view .LVU238
 748 0358 0D4B     		ldr	r3, .L89
 749 035a 1B68     		ldr	r3, [r3]
 506:Drivers/STM32F4xx_HAL_Driver/Src/stm32f4xx_hal_rcc.c ****         {
 750              		.loc 1 506 14 view .LVU239
 751 035c 13F0007F 		tst	r3, #33554432
 752 0360 06D1     		bne	.L86
 508:Drivers/STM32F4xx_HAL_Driver/Src/stm32f4xx_hal_rcc.c ****           {
 753              		.loc 1 508 11 is_stmt 1 view .LVU240
 508:Drivers/STM32F4xx_HAL_Driver/Src/stm32f4xx_hal_rcc.c ****           {
 754              		.loc 1 508 15 is_stmt 0 view .LVU241
 755 0362 FFF7FEFF 		bl	HAL_GetTick
 756              	.LVL52:
 508:Drivers/STM32F4xx_HAL_Driver/Src/stm32f4xx_hal_rcc.c ****           {
 757              		.loc 1 508 29 view .LVU242
ARM GAS  C:\Users\ncer\AppData\Local\Temp\ccYOzh7d.s 			page 25


 758 0366 001B     		subs	r0, r0, r4
 508:Drivers/STM32F4xx_HAL_Driver/Src/stm32f4xx_hal_rcc.c ****           {
 759              		.loc 1 508 13 view .LVU243
 760 0368 0228     		cmp	r0, #2
 761 036a F5D9     		bls	.L47
 510:Drivers/STM32F4xx_HAL_Driver/Src/stm32f4xx_hal_rcc.c ****           }
 762              		.loc 1 510 20 view .LVU244
 763 036c 0320     		movs	r0, #3
 764 036e 0AE0     		b	.L3
 765              	.L86:
 528:Drivers/STM32F4xx_HAL_Driver/Src/stm32f4xx_hal_rcc.c ****           }
 529:Drivers/STM32F4xx_HAL_Driver/Src/stm32f4xx_hal_rcc.c ****         }
 530:Drivers/STM32F4xx_HAL_Driver/Src/stm32f4xx_hal_rcc.c ****       }
 531:Drivers/STM32F4xx_HAL_Driver/Src/stm32f4xx_hal_rcc.c ****     }
 532:Drivers/STM32F4xx_HAL_Driver/Src/stm32f4xx_hal_rcc.c ****     else
 533:Drivers/STM32F4xx_HAL_Driver/Src/stm32f4xx_hal_rcc.c ****     {
 534:Drivers/STM32F4xx_HAL_Driver/Src/stm32f4xx_hal_rcc.c ****       return HAL_ERROR;
 535:Drivers/STM32F4xx_HAL_Driver/Src/stm32f4xx_hal_rcc.c ****     }
 536:Drivers/STM32F4xx_HAL_Driver/Src/stm32f4xx_hal_rcc.c ****   }
 537:Drivers/STM32F4xx_HAL_Driver/Src/stm32f4xx_hal_rcc.c ****   return HAL_OK;
 766              		.loc 1 537 10 view .LVU245
 767 0370 0020     		movs	r0, #0
 768 0372 08E0     		b	.L3
 769              	.L84:
 770              		.loc 1 537 10 view .LVU246
 771 0374 0020     		movs	r0, #0
 772 0376 06E0     		b	.L3
 773              	.LVL53:
 774              	.L51:
 775              	.LCFI2:
 776              		.cfi_def_cfa_offset 0
 777              		.cfi_restore 4
 778              		.cfi_restore 5
 779              		.cfi_restore 6
 780              		.cfi_restore 14
 228:Drivers/STM32F4xx_HAL_Driver/Src/stm32f4xx_hal_rcc.c ****   }
 781              		.loc 1 228 12 view .LVU247
 782 0378 0120     		movs	r0, #1
 783              	.LVL54:
 538:Drivers/STM32F4xx_HAL_Driver/Src/stm32f4xx_hal_rcc.c **** }
 784              		.loc 1 538 1 view .LVU248
 785 037a 7047     		bx	lr
 786              	.LVL55:
 787              	.L76:
 788              	.LCFI3:
 789              		.cfi_def_cfa_offset 24
 790              		.cfi_offset 4, -16
 791              		.cfi_offset 5, -12
 792              		.cfi_offset 6, -8
 793              		.cfi_offset 14, -4
 244:Drivers/STM32F4xx_HAL_Driver/Src/stm32f4xx_hal_rcc.c ****       }
 794              		.loc 1 244 16 view .LVU249
 795 037c 0120     		movs	r0, #1
 796              	.LVL56:
 244:Drivers/STM32F4xx_HAL_Driver/Src/stm32f4xx_hal_rcc.c ****       }
 797              		.loc 1 244 16 view .LVU250
 798 037e 02E0     		b	.L3
ARM GAS  C:\Users\ncer\AppData\Local\Temp\ccYOzh7d.s 			page 26


 799              	.L55:
 297:Drivers/STM32F4xx_HAL_Driver/Src/stm32f4xx_hal_rcc.c ****       }
 800              		.loc 1 297 16 view .LVU251
 801 0380 0120     		movs	r0, #1
 802 0382 00E0     		b	.L3
 803              	.L64:
 537:Drivers/STM32F4xx_HAL_Driver/Src/stm32f4xx_hal_rcc.c **** }
 804              		.loc 1 537 10 view .LVU252
 805 0384 0020     		movs	r0, #0
 806              	.LVL57:
 807              	.L3:
 808              		.loc 1 538 1 view .LVU253
 809 0386 02B0     		add	sp, sp, #8
 810              	.LCFI4:
 811              		.cfi_remember_state
 812              		.cfi_def_cfa_offset 16
 813              		@ sp needed
 814 0388 70BD     		pop	{r4, r5, r6, pc}
 815              	.LVL58:
 816              	.L65:
 817              	.LCFI5:
 818              		.cfi_restore_state
 534:Drivers/STM32F4xx_HAL_Driver/Src/stm32f4xx_hal_rcc.c ****     }
 819              		.loc 1 534 14 view .LVU254
 820 038a 0120     		movs	r0, #1
 821 038c FBE7     		b	.L3
 822              	.L90:
 823 038e 00BF     		.align	2
 824              	.L89:
 825 0390 00380240 		.word	1073887232
 826 0394 60004742 		.word	1111949408
 827              		.cfi_endproc
 828              	.LFE131:
 830              		.section	.text.HAL_RCC_MCOConfig,"ax",%progbits
 831              		.align	1
 832              		.global	HAL_RCC_MCOConfig
 833              		.syntax unified
 834              		.thumb
 835              		.thumb_func
 836              		.fpu fpv4-sp-d16
 838              	HAL_RCC_MCOConfig:
 839              	.LVL59:
 840              	.LFB133:
 539:Drivers/STM32F4xx_HAL_Driver/Src/stm32f4xx_hal_rcc.c **** 
 540:Drivers/STM32F4xx_HAL_Driver/Src/stm32f4xx_hal_rcc.c **** /**
 541:Drivers/STM32F4xx_HAL_Driver/Src/stm32f4xx_hal_rcc.c ****   * @brief  Initializes the CPU, AHB and APB busses clocks according to the specified
 542:Drivers/STM32F4xx_HAL_Driver/Src/stm32f4xx_hal_rcc.c ****   *         parameters in the RCC_ClkInitStruct.
 543:Drivers/STM32F4xx_HAL_Driver/Src/stm32f4xx_hal_rcc.c ****   * @param  RCC_ClkInitStruct pointer to an RCC_OscInitTypeDef structure that
 544:Drivers/STM32F4xx_HAL_Driver/Src/stm32f4xx_hal_rcc.c ****   *         contains the configuration information for the RCC peripheral.
 545:Drivers/STM32F4xx_HAL_Driver/Src/stm32f4xx_hal_rcc.c ****   * @param  FLatency FLASH Latency, this parameter depend on device selected
 546:Drivers/STM32F4xx_HAL_Driver/Src/stm32f4xx_hal_rcc.c ****   *
 547:Drivers/STM32F4xx_HAL_Driver/Src/stm32f4xx_hal_rcc.c ****   * @note   The SystemCoreClock CMSIS variable is used to store System Clock Frequency
 548:Drivers/STM32F4xx_HAL_Driver/Src/stm32f4xx_hal_rcc.c ****   *         and updated by HAL_RCC_GetHCLKFreq() function called within this function
 549:Drivers/STM32F4xx_HAL_Driver/Src/stm32f4xx_hal_rcc.c ****   *
 550:Drivers/STM32F4xx_HAL_Driver/Src/stm32f4xx_hal_rcc.c ****   * @note   The HSI is used (enabled by hardware) as system clock source after
 551:Drivers/STM32F4xx_HAL_Driver/Src/stm32f4xx_hal_rcc.c ****   *         startup from Reset, wake-up from STOP and STANDBY mode, or in case
 552:Drivers/STM32F4xx_HAL_Driver/Src/stm32f4xx_hal_rcc.c ****   *         of failure of the HSE used directly or indirectly as system clock
ARM GAS  C:\Users\ncer\AppData\Local\Temp\ccYOzh7d.s 			page 27


 553:Drivers/STM32F4xx_HAL_Driver/Src/stm32f4xx_hal_rcc.c ****   *         (if the Clock Security System CSS is enabled).
 554:Drivers/STM32F4xx_HAL_Driver/Src/stm32f4xx_hal_rcc.c ****   *
 555:Drivers/STM32F4xx_HAL_Driver/Src/stm32f4xx_hal_rcc.c ****   * @note   A switch from one clock source to another occurs only if the target
 556:Drivers/STM32F4xx_HAL_Driver/Src/stm32f4xx_hal_rcc.c ****   *         clock source is ready (clock stable after startup delay or PLL locked).
 557:Drivers/STM32F4xx_HAL_Driver/Src/stm32f4xx_hal_rcc.c ****   *         If a clock source which is not yet ready is selected, the switch will
 558:Drivers/STM32F4xx_HAL_Driver/Src/stm32f4xx_hal_rcc.c ****   *         occur when the clock source will be ready.
 559:Drivers/STM32F4xx_HAL_Driver/Src/stm32f4xx_hal_rcc.c ****   *
 560:Drivers/STM32F4xx_HAL_Driver/Src/stm32f4xx_hal_rcc.c ****   * @note   Depending on the device voltage range, the software has to set correctly
 561:Drivers/STM32F4xx_HAL_Driver/Src/stm32f4xx_hal_rcc.c ****   *         HPRE[3:0] bits to ensure that HCLK not exceed the maximum allowed frequency
 562:Drivers/STM32F4xx_HAL_Driver/Src/stm32f4xx_hal_rcc.c ****   *         (for more details refer to section above "Initialization/de-initialization functions")
 563:Drivers/STM32F4xx_HAL_Driver/Src/stm32f4xx_hal_rcc.c ****   * @retval None
 564:Drivers/STM32F4xx_HAL_Driver/Src/stm32f4xx_hal_rcc.c ****   */
 565:Drivers/STM32F4xx_HAL_Driver/Src/stm32f4xx_hal_rcc.c **** HAL_StatusTypeDef HAL_RCC_ClockConfig(RCC_ClkInitTypeDef  *RCC_ClkInitStruct, uint32_t FLatency)
 566:Drivers/STM32F4xx_HAL_Driver/Src/stm32f4xx_hal_rcc.c **** {
 567:Drivers/STM32F4xx_HAL_Driver/Src/stm32f4xx_hal_rcc.c ****   uint32_t tickstart;
 568:Drivers/STM32F4xx_HAL_Driver/Src/stm32f4xx_hal_rcc.c **** 
 569:Drivers/STM32F4xx_HAL_Driver/Src/stm32f4xx_hal_rcc.c ****   /* Check Null pointer */
 570:Drivers/STM32F4xx_HAL_Driver/Src/stm32f4xx_hal_rcc.c ****   if(RCC_ClkInitStruct == NULL)
 571:Drivers/STM32F4xx_HAL_Driver/Src/stm32f4xx_hal_rcc.c ****   {
 572:Drivers/STM32F4xx_HAL_Driver/Src/stm32f4xx_hal_rcc.c ****     return HAL_ERROR;
 573:Drivers/STM32F4xx_HAL_Driver/Src/stm32f4xx_hal_rcc.c ****   }
 574:Drivers/STM32F4xx_HAL_Driver/Src/stm32f4xx_hal_rcc.c **** 
 575:Drivers/STM32F4xx_HAL_Driver/Src/stm32f4xx_hal_rcc.c ****   /* Check the parameters */
 576:Drivers/STM32F4xx_HAL_Driver/Src/stm32f4xx_hal_rcc.c ****   assert_param(IS_RCC_CLOCKTYPE(RCC_ClkInitStruct->ClockType));
 577:Drivers/STM32F4xx_HAL_Driver/Src/stm32f4xx_hal_rcc.c ****   assert_param(IS_FLASH_LATENCY(FLatency));
 578:Drivers/STM32F4xx_HAL_Driver/Src/stm32f4xx_hal_rcc.c **** 
 579:Drivers/STM32F4xx_HAL_Driver/Src/stm32f4xx_hal_rcc.c ****   /* To correctly read data from FLASH memory, the number of wait states (LATENCY)
 580:Drivers/STM32F4xx_HAL_Driver/Src/stm32f4xx_hal_rcc.c ****     must be correctly programmed according to the frequency of the CPU clock
 581:Drivers/STM32F4xx_HAL_Driver/Src/stm32f4xx_hal_rcc.c ****     (HCLK) and the supply voltage of the device. */
 582:Drivers/STM32F4xx_HAL_Driver/Src/stm32f4xx_hal_rcc.c **** 
 583:Drivers/STM32F4xx_HAL_Driver/Src/stm32f4xx_hal_rcc.c ****   /* Increasing the number of wait states because of higher CPU frequency */
 584:Drivers/STM32F4xx_HAL_Driver/Src/stm32f4xx_hal_rcc.c ****   if(FLatency > __HAL_FLASH_GET_LATENCY())
 585:Drivers/STM32F4xx_HAL_Driver/Src/stm32f4xx_hal_rcc.c ****   {
 586:Drivers/STM32F4xx_HAL_Driver/Src/stm32f4xx_hal_rcc.c ****     /* Program the new number of wait states to the LATENCY bits in the FLASH_ACR register */
 587:Drivers/STM32F4xx_HAL_Driver/Src/stm32f4xx_hal_rcc.c ****     __HAL_FLASH_SET_LATENCY(FLatency);
 588:Drivers/STM32F4xx_HAL_Driver/Src/stm32f4xx_hal_rcc.c **** 
 589:Drivers/STM32F4xx_HAL_Driver/Src/stm32f4xx_hal_rcc.c ****     /* Check that the new number of wait states is taken into account to access the Flash
 590:Drivers/STM32F4xx_HAL_Driver/Src/stm32f4xx_hal_rcc.c ****     memory by reading the FLASH_ACR register */
 591:Drivers/STM32F4xx_HAL_Driver/Src/stm32f4xx_hal_rcc.c ****     if(__HAL_FLASH_GET_LATENCY() != FLatency)
 592:Drivers/STM32F4xx_HAL_Driver/Src/stm32f4xx_hal_rcc.c ****     {
 593:Drivers/STM32F4xx_HAL_Driver/Src/stm32f4xx_hal_rcc.c ****       return HAL_ERROR;
 594:Drivers/STM32F4xx_HAL_Driver/Src/stm32f4xx_hal_rcc.c ****     }
 595:Drivers/STM32F4xx_HAL_Driver/Src/stm32f4xx_hal_rcc.c ****   }
 596:Drivers/STM32F4xx_HAL_Driver/Src/stm32f4xx_hal_rcc.c **** 
 597:Drivers/STM32F4xx_HAL_Driver/Src/stm32f4xx_hal_rcc.c ****   /*-------------------------- HCLK Configuration --------------------------*/
 598:Drivers/STM32F4xx_HAL_Driver/Src/stm32f4xx_hal_rcc.c ****   if(((RCC_ClkInitStruct->ClockType) & RCC_CLOCKTYPE_HCLK) == RCC_CLOCKTYPE_HCLK)
 599:Drivers/STM32F4xx_HAL_Driver/Src/stm32f4xx_hal_rcc.c ****   {
 600:Drivers/STM32F4xx_HAL_Driver/Src/stm32f4xx_hal_rcc.c ****     /* Set the highest APBx dividers in order to ensure that we do not go through
 601:Drivers/STM32F4xx_HAL_Driver/Src/stm32f4xx_hal_rcc.c ****        a non-spec phase whatever we decrease or increase HCLK. */
 602:Drivers/STM32F4xx_HAL_Driver/Src/stm32f4xx_hal_rcc.c ****     if(((RCC_ClkInitStruct->ClockType) & RCC_CLOCKTYPE_PCLK1) == RCC_CLOCKTYPE_PCLK1)
 603:Drivers/STM32F4xx_HAL_Driver/Src/stm32f4xx_hal_rcc.c ****     {
 604:Drivers/STM32F4xx_HAL_Driver/Src/stm32f4xx_hal_rcc.c ****       MODIFY_REG(RCC->CFGR, RCC_CFGR_PPRE1, RCC_HCLK_DIV16);
 605:Drivers/STM32F4xx_HAL_Driver/Src/stm32f4xx_hal_rcc.c ****     }
 606:Drivers/STM32F4xx_HAL_Driver/Src/stm32f4xx_hal_rcc.c **** 
 607:Drivers/STM32F4xx_HAL_Driver/Src/stm32f4xx_hal_rcc.c ****     if(((RCC_ClkInitStruct->ClockType) & RCC_CLOCKTYPE_PCLK2) == RCC_CLOCKTYPE_PCLK2)
 608:Drivers/STM32F4xx_HAL_Driver/Src/stm32f4xx_hal_rcc.c ****     {
 609:Drivers/STM32F4xx_HAL_Driver/Src/stm32f4xx_hal_rcc.c ****       MODIFY_REG(RCC->CFGR, RCC_CFGR_PPRE2, (RCC_HCLK_DIV16 << 3));
ARM GAS  C:\Users\ncer\AppData\Local\Temp\ccYOzh7d.s 			page 28


 610:Drivers/STM32F4xx_HAL_Driver/Src/stm32f4xx_hal_rcc.c ****     }
 611:Drivers/STM32F4xx_HAL_Driver/Src/stm32f4xx_hal_rcc.c **** 
 612:Drivers/STM32F4xx_HAL_Driver/Src/stm32f4xx_hal_rcc.c ****     assert_param(IS_RCC_HCLK(RCC_ClkInitStruct->AHBCLKDivider));
 613:Drivers/STM32F4xx_HAL_Driver/Src/stm32f4xx_hal_rcc.c ****     MODIFY_REG(RCC->CFGR, RCC_CFGR_HPRE, RCC_ClkInitStruct->AHBCLKDivider);
 614:Drivers/STM32F4xx_HAL_Driver/Src/stm32f4xx_hal_rcc.c ****   }
 615:Drivers/STM32F4xx_HAL_Driver/Src/stm32f4xx_hal_rcc.c **** 
 616:Drivers/STM32F4xx_HAL_Driver/Src/stm32f4xx_hal_rcc.c ****   /*------------------------- SYSCLK Configuration ---------------------------*/
 617:Drivers/STM32F4xx_HAL_Driver/Src/stm32f4xx_hal_rcc.c ****   if(((RCC_ClkInitStruct->ClockType) & RCC_CLOCKTYPE_SYSCLK) == RCC_CLOCKTYPE_SYSCLK)
 618:Drivers/STM32F4xx_HAL_Driver/Src/stm32f4xx_hal_rcc.c ****   {
 619:Drivers/STM32F4xx_HAL_Driver/Src/stm32f4xx_hal_rcc.c ****     assert_param(IS_RCC_SYSCLKSOURCE(RCC_ClkInitStruct->SYSCLKSource));
 620:Drivers/STM32F4xx_HAL_Driver/Src/stm32f4xx_hal_rcc.c **** 
 621:Drivers/STM32F4xx_HAL_Driver/Src/stm32f4xx_hal_rcc.c ****     /* HSE is selected as System Clock Source */
 622:Drivers/STM32F4xx_HAL_Driver/Src/stm32f4xx_hal_rcc.c ****     if(RCC_ClkInitStruct->SYSCLKSource == RCC_SYSCLKSOURCE_HSE)
 623:Drivers/STM32F4xx_HAL_Driver/Src/stm32f4xx_hal_rcc.c ****     {
 624:Drivers/STM32F4xx_HAL_Driver/Src/stm32f4xx_hal_rcc.c ****       /* Check the HSE ready flag */
 625:Drivers/STM32F4xx_HAL_Driver/Src/stm32f4xx_hal_rcc.c ****       if(__HAL_RCC_GET_FLAG(RCC_FLAG_HSERDY) == RESET)
 626:Drivers/STM32F4xx_HAL_Driver/Src/stm32f4xx_hal_rcc.c ****       {
 627:Drivers/STM32F4xx_HAL_Driver/Src/stm32f4xx_hal_rcc.c ****         return HAL_ERROR;
 628:Drivers/STM32F4xx_HAL_Driver/Src/stm32f4xx_hal_rcc.c ****       }
 629:Drivers/STM32F4xx_HAL_Driver/Src/stm32f4xx_hal_rcc.c ****     }
 630:Drivers/STM32F4xx_HAL_Driver/Src/stm32f4xx_hal_rcc.c ****     /* PLL is selected as System Clock Source */
 631:Drivers/STM32F4xx_HAL_Driver/Src/stm32f4xx_hal_rcc.c ****     else if((RCC_ClkInitStruct->SYSCLKSource == RCC_SYSCLKSOURCE_PLLCLK)   ||
 632:Drivers/STM32F4xx_HAL_Driver/Src/stm32f4xx_hal_rcc.c ****             (RCC_ClkInitStruct->SYSCLKSource == RCC_SYSCLKSOURCE_PLLRCLK))
 633:Drivers/STM32F4xx_HAL_Driver/Src/stm32f4xx_hal_rcc.c ****     {
 634:Drivers/STM32F4xx_HAL_Driver/Src/stm32f4xx_hal_rcc.c ****       /* Check the PLL ready flag */
 635:Drivers/STM32F4xx_HAL_Driver/Src/stm32f4xx_hal_rcc.c ****       if(__HAL_RCC_GET_FLAG(RCC_FLAG_PLLRDY) == RESET)
 636:Drivers/STM32F4xx_HAL_Driver/Src/stm32f4xx_hal_rcc.c ****       {
 637:Drivers/STM32F4xx_HAL_Driver/Src/stm32f4xx_hal_rcc.c ****         return HAL_ERROR;
 638:Drivers/STM32F4xx_HAL_Driver/Src/stm32f4xx_hal_rcc.c ****       }
 639:Drivers/STM32F4xx_HAL_Driver/Src/stm32f4xx_hal_rcc.c ****     }
 640:Drivers/STM32F4xx_HAL_Driver/Src/stm32f4xx_hal_rcc.c ****     /* HSI is selected as System Clock Source */
 641:Drivers/STM32F4xx_HAL_Driver/Src/stm32f4xx_hal_rcc.c ****     else
 642:Drivers/STM32F4xx_HAL_Driver/Src/stm32f4xx_hal_rcc.c ****     {
 643:Drivers/STM32F4xx_HAL_Driver/Src/stm32f4xx_hal_rcc.c ****       /* Check the HSI ready flag */
 644:Drivers/STM32F4xx_HAL_Driver/Src/stm32f4xx_hal_rcc.c ****       if(__HAL_RCC_GET_FLAG(RCC_FLAG_HSIRDY) == RESET)
 645:Drivers/STM32F4xx_HAL_Driver/Src/stm32f4xx_hal_rcc.c ****       {
 646:Drivers/STM32F4xx_HAL_Driver/Src/stm32f4xx_hal_rcc.c ****         return HAL_ERROR;
 647:Drivers/STM32F4xx_HAL_Driver/Src/stm32f4xx_hal_rcc.c ****       }
 648:Drivers/STM32F4xx_HAL_Driver/Src/stm32f4xx_hal_rcc.c ****     }
 649:Drivers/STM32F4xx_HAL_Driver/Src/stm32f4xx_hal_rcc.c **** 
 650:Drivers/STM32F4xx_HAL_Driver/Src/stm32f4xx_hal_rcc.c ****     __HAL_RCC_SYSCLK_CONFIG(RCC_ClkInitStruct->SYSCLKSource);
 651:Drivers/STM32F4xx_HAL_Driver/Src/stm32f4xx_hal_rcc.c **** 
 652:Drivers/STM32F4xx_HAL_Driver/Src/stm32f4xx_hal_rcc.c ****     /* Get Start Tick */
 653:Drivers/STM32F4xx_HAL_Driver/Src/stm32f4xx_hal_rcc.c ****     tickstart = HAL_GetTick();
 654:Drivers/STM32F4xx_HAL_Driver/Src/stm32f4xx_hal_rcc.c **** 
 655:Drivers/STM32F4xx_HAL_Driver/Src/stm32f4xx_hal_rcc.c ****     while (__HAL_RCC_GET_SYSCLK_SOURCE() != (RCC_ClkInitStruct->SYSCLKSource << RCC_CFGR_SWS_Pos))
 656:Drivers/STM32F4xx_HAL_Driver/Src/stm32f4xx_hal_rcc.c ****     {
 657:Drivers/STM32F4xx_HAL_Driver/Src/stm32f4xx_hal_rcc.c ****       if ((HAL_GetTick() - tickstart) > CLOCKSWITCH_TIMEOUT_VALUE)
 658:Drivers/STM32F4xx_HAL_Driver/Src/stm32f4xx_hal_rcc.c ****       {
 659:Drivers/STM32F4xx_HAL_Driver/Src/stm32f4xx_hal_rcc.c ****         return HAL_TIMEOUT;
 660:Drivers/STM32F4xx_HAL_Driver/Src/stm32f4xx_hal_rcc.c ****       }
 661:Drivers/STM32F4xx_HAL_Driver/Src/stm32f4xx_hal_rcc.c ****     }
 662:Drivers/STM32F4xx_HAL_Driver/Src/stm32f4xx_hal_rcc.c ****   }
 663:Drivers/STM32F4xx_HAL_Driver/Src/stm32f4xx_hal_rcc.c **** 
 664:Drivers/STM32F4xx_HAL_Driver/Src/stm32f4xx_hal_rcc.c ****   /* Decreasing the number of wait states because of lower CPU frequency */
 665:Drivers/STM32F4xx_HAL_Driver/Src/stm32f4xx_hal_rcc.c ****   if(FLatency < __HAL_FLASH_GET_LATENCY())
 666:Drivers/STM32F4xx_HAL_Driver/Src/stm32f4xx_hal_rcc.c ****   {
ARM GAS  C:\Users\ncer\AppData\Local\Temp\ccYOzh7d.s 			page 29


 667:Drivers/STM32F4xx_HAL_Driver/Src/stm32f4xx_hal_rcc.c ****      /* Program the new number of wait states to the LATENCY bits in the FLASH_ACR register */
 668:Drivers/STM32F4xx_HAL_Driver/Src/stm32f4xx_hal_rcc.c ****     __HAL_FLASH_SET_LATENCY(FLatency);
 669:Drivers/STM32F4xx_HAL_Driver/Src/stm32f4xx_hal_rcc.c **** 
 670:Drivers/STM32F4xx_HAL_Driver/Src/stm32f4xx_hal_rcc.c ****     /* Check that the new number of wait states is taken into account to access the Flash
 671:Drivers/STM32F4xx_HAL_Driver/Src/stm32f4xx_hal_rcc.c ****     memory by reading the FLASH_ACR register */
 672:Drivers/STM32F4xx_HAL_Driver/Src/stm32f4xx_hal_rcc.c ****     if(__HAL_FLASH_GET_LATENCY() != FLatency)
 673:Drivers/STM32F4xx_HAL_Driver/Src/stm32f4xx_hal_rcc.c ****     {
 674:Drivers/STM32F4xx_HAL_Driver/Src/stm32f4xx_hal_rcc.c ****       return HAL_ERROR;
 675:Drivers/STM32F4xx_HAL_Driver/Src/stm32f4xx_hal_rcc.c ****     }
 676:Drivers/STM32F4xx_HAL_Driver/Src/stm32f4xx_hal_rcc.c ****   }
 677:Drivers/STM32F4xx_HAL_Driver/Src/stm32f4xx_hal_rcc.c **** 
 678:Drivers/STM32F4xx_HAL_Driver/Src/stm32f4xx_hal_rcc.c ****   /*-------------------------- PCLK1 Configuration ---------------------------*/
 679:Drivers/STM32F4xx_HAL_Driver/Src/stm32f4xx_hal_rcc.c ****   if(((RCC_ClkInitStruct->ClockType) & RCC_CLOCKTYPE_PCLK1) == RCC_CLOCKTYPE_PCLK1)
 680:Drivers/STM32F4xx_HAL_Driver/Src/stm32f4xx_hal_rcc.c ****   {
 681:Drivers/STM32F4xx_HAL_Driver/Src/stm32f4xx_hal_rcc.c ****     assert_param(IS_RCC_PCLK(RCC_ClkInitStruct->APB1CLKDivider));
 682:Drivers/STM32F4xx_HAL_Driver/Src/stm32f4xx_hal_rcc.c ****     MODIFY_REG(RCC->CFGR, RCC_CFGR_PPRE1, RCC_ClkInitStruct->APB1CLKDivider);
 683:Drivers/STM32F4xx_HAL_Driver/Src/stm32f4xx_hal_rcc.c ****   }
 684:Drivers/STM32F4xx_HAL_Driver/Src/stm32f4xx_hal_rcc.c **** 
 685:Drivers/STM32F4xx_HAL_Driver/Src/stm32f4xx_hal_rcc.c ****   /*-------------------------- PCLK2 Configuration ---------------------------*/
 686:Drivers/STM32F4xx_HAL_Driver/Src/stm32f4xx_hal_rcc.c ****   if(((RCC_ClkInitStruct->ClockType) & RCC_CLOCKTYPE_PCLK2) == RCC_CLOCKTYPE_PCLK2)
 687:Drivers/STM32F4xx_HAL_Driver/Src/stm32f4xx_hal_rcc.c ****   {
 688:Drivers/STM32F4xx_HAL_Driver/Src/stm32f4xx_hal_rcc.c ****     assert_param(IS_RCC_PCLK(RCC_ClkInitStruct->APB2CLKDivider));
 689:Drivers/STM32F4xx_HAL_Driver/Src/stm32f4xx_hal_rcc.c ****     MODIFY_REG(RCC->CFGR, RCC_CFGR_PPRE2, ((RCC_ClkInitStruct->APB2CLKDivider) << 3U));
 690:Drivers/STM32F4xx_HAL_Driver/Src/stm32f4xx_hal_rcc.c ****   }
 691:Drivers/STM32F4xx_HAL_Driver/Src/stm32f4xx_hal_rcc.c **** 
 692:Drivers/STM32F4xx_HAL_Driver/Src/stm32f4xx_hal_rcc.c ****   /* Update the SystemCoreClock global variable */
 693:Drivers/STM32F4xx_HAL_Driver/Src/stm32f4xx_hal_rcc.c ****   SystemCoreClock = HAL_RCC_GetSysClockFreq() >> AHBPrescTable[(RCC->CFGR & RCC_CFGR_HPRE)>> RCC_CF
 694:Drivers/STM32F4xx_HAL_Driver/Src/stm32f4xx_hal_rcc.c **** 
 695:Drivers/STM32F4xx_HAL_Driver/Src/stm32f4xx_hal_rcc.c ****   /* Configure the source of time base considering new system clocks settings */
 696:Drivers/STM32F4xx_HAL_Driver/Src/stm32f4xx_hal_rcc.c ****   HAL_InitTick (TICK_INT_PRIORITY);
 697:Drivers/STM32F4xx_HAL_Driver/Src/stm32f4xx_hal_rcc.c **** 
 698:Drivers/STM32F4xx_HAL_Driver/Src/stm32f4xx_hal_rcc.c ****   return HAL_OK;
 699:Drivers/STM32F4xx_HAL_Driver/Src/stm32f4xx_hal_rcc.c **** }
 700:Drivers/STM32F4xx_HAL_Driver/Src/stm32f4xx_hal_rcc.c **** 
 701:Drivers/STM32F4xx_HAL_Driver/Src/stm32f4xx_hal_rcc.c **** /**
 702:Drivers/STM32F4xx_HAL_Driver/Src/stm32f4xx_hal_rcc.c ****   * @}
 703:Drivers/STM32F4xx_HAL_Driver/Src/stm32f4xx_hal_rcc.c ****   */
 704:Drivers/STM32F4xx_HAL_Driver/Src/stm32f4xx_hal_rcc.c **** 
 705:Drivers/STM32F4xx_HAL_Driver/Src/stm32f4xx_hal_rcc.c **** /** @defgroup RCC_Exported_Functions_Group2 Peripheral Control functions
 706:Drivers/STM32F4xx_HAL_Driver/Src/stm32f4xx_hal_rcc.c ****  *  @brief   RCC clocks control functions
 707:Drivers/STM32F4xx_HAL_Driver/Src/stm32f4xx_hal_rcc.c ****  *
 708:Drivers/STM32F4xx_HAL_Driver/Src/stm32f4xx_hal_rcc.c **** @verbatim
 709:Drivers/STM32F4xx_HAL_Driver/Src/stm32f4xx_hal_rcc.c ****  ===============================================================================
 710:Drivers/STM32F4xx_HAL_Driver/Src/stm32f4xx_hal_rcc.c ****                       ##### Peripheral Control functions #####
 711:Drivers/STM32F4xx_HAL_Driver/Src/stm32f4xx_hal_rcc.c ****  ===============================================================================
 712:Drivers/STM32F4xx_HAL_Driver/Src/stm32f4xx_hal_rcc.c ****     [..]
 713:Drivers/STM32F4xx_HAL_Driver/Src/stm32f4xx_hal_rcc.c ****     This subsection provides a set of functions allowing to control the RCC Clocks
 714:Drivers/STM32F4xx_HAL_Driver/Src/stm32f4xx_hal_rcc.c ****     frequencies.
 715:Drivers/STM32F4xx_HAL_Driver/Src/stm32f4xx_hal_rcc.c **** 
 716:Drivers/STM32F4xx_HAL_Driver/Src/stm32f4xx_hal_rcc.c **** @endverbatim
 717:Drivers/STM32F4xx_HAL_Driver/Src/stm32f4xx_hal_rcc.c ****   * @{
 718:Drivers/STM32F4xx_HAL_Driver/Src/stm32f4xx_hal_rcc.c ****   */
 719:Drivers/STM32F4xx_HAL_Driver/Src/stm32f4xx_hal_rcc.c **** 
 720:Drivers/STM32F4xx_HAL_Driver/Src/stm32f4xx_hal_rcc.c **** /**
 721:Drivers/STM32F4xx_HAL_Driver/Src/stm32f4xx_hal_rcc.c ****   * @brief  Selects the clock source to output on MCO1 pin(PA8) or on MCO2 pin(PC9).
 722:Drivers/STM32F4xx_HAL_Driver/Src/stm32f4xx_hal_rcc.c ****   * @note   PA8/PC9 should be configured in alternate function mode.
 723:Drivers/STM32F4xx_HAL_Driver/Src/stm32f4xx_hal_rcc.c ****   * @param  RCC_MCOx specifies the output direction for the clock source.
ARM GAS  C:\Users\ncer\AppData\Local\Temp\ccYOzh7d.s 			page 30


 724:Drivers/STM32F4xx_HAL_Driver/Src/stm32f4xx_hal_rcc.c ****   *          This parameter can be one of the following values:
 725:Drivers/STM32F4xx_HAL_Driver/Src/stm32f4xx_hal_rcc.c ****   *            @arg RCC_MCO1: Clock source to output on MCO1 pin(PA8).
 726:Drivers/STM32F4xx_HAL_Driver/Src/stm32f4xx_hal_rcc.c ****   *            @arg RCC_MCO2: Clock source to output on MCO2 pin(PC9).
 727:Drivers/STM32F4xx_HAL_Driver/Src/stm32f4xx_hal_rcc.c ****   * @param  RCC_MCOSource specifies the clock source to output.
 728:Drivers/STM32F4xx_HAL_Driver/Src/stm32f4xx_hal_rcc.c ****   *          This parameter can be one of the following values:
 729:Drivers/STM32F4xx_HAL_Driver/Src/stm32f4xx_hal_rcc.c ****   *            @arg RCC_MCO1SOURCE_HSI: HSI clock selected as MCO1 source
 730:Drivers/STM32F4xx_HAL_Driver/Src/stm32f4xx_hal_rcc.c ****   *            @arg RCC_MCO1SOURCE_LSE: LSE clock selected as MCO1 source
 731:Drivers/STM32F4xx_HAL_Driver/Src/stm32f4xx_hal_rcc.c ****   *            @arg RCC_MCO1SOURCE_HSE: HSE clock selected as MCO1 source
 732:Drivers/STM32F4xx_HAL_Driver/Src/stm32f4xx_hal_rcc.c ****   *            @arg RCC_MCO1SOURCE_PLLCLK: main PLL clock selected as MCO1 source
 733:Drivers/STM32F4xx_HAL_Driver/Src/stm32f4xx_hal_rcc.c ****   *            @arg RCC_MCO2SOURCE_SYSCLK: System clock (SYSCLK) selected as MCO2 source
 734:Drivers/STM32F4xx_HAL_Driver/Src/stm32f4xx_hal_rcc.c ****   *            @arg RCC_MCO2SOURCE_PLLI2SCLK: PLLI2S clock selected as MCO2 source, available for a
 735:Drivers/STM32F4xx_HAL_Driver/Src/stm32f4xx_hal_rcc.c ****   *            @arg RCC_MCO2SOURCE_I2SCLK: I2SCLK clock selected as MCO2 source, available only for
 736:Drivers/STM32F4xx_HAL_Driver/Src/stm32f4xx_hal_rcc.c ****   *            @arg RCC_MCO2SOURCE_HSE: HSE clock selected as MCO2 source
 737:Drivers/STM32F4xx_HAL_Driver/Src/stm32f4xx_hal_rcc.c ****   *            @arg RCC_MCO2SOURCE_PLLCLK: main PLL clock selected as MCO2 source
 738:Drivers/STM32F4xx_HAL_Driver/Src/stm32f4xx_hal_rcc.c ****   * @param  RCC_MCODiv specifies the MCOx prescaler.
 739:Drivers/STM32F4xx_HAL_Driver/Src/stm32f4xx_hal_rcc.c ****   *          This parameter can be one of the following values:
 740:Drivers/STM32F4xx_HAL_Driver/Src/stm32f4xx_hal_rcc.c ****   *            @arg RCC_MCODIV_1: no division applied to MCOx clock
 741:Drivers/STM32F4xx_HAL_Driver/Src/stm32f4xx_hal_rcc.c ****   *            @arg RCC_MCODIV_2: division by 2 applied to MCOx clock
 742:Drivers/STM32F4xx_HAL_Driver/Src/stm32f4xx_hal_rcc.c ****   *            @arg RCC_MCODIV_3: division by 3 applied to MCOx clock
 743:Drivers/STM32F4xx_HAL_Driver/Src/stm32f4xx_hal_rcc.c ****   *            @arg RCC_MCODIV_4: division by 4 applied to MCOx clock
 744:Drivers/STM32F4xx_HAL_Driver/Src/stm32f4xx_hal_rcc.c ****   *            @arg RCC_MCODIV_5: division by 5 applied to MCOx clock
 745:Drivers/STM32F4xx_HAL_Driver/Src/stm32f4xx_hal_rcc.c ****   * @note  For STM32F410Rx devices to output I2SCLK clock on MCO2 you should have
 746:Drivers/STM32F4xx_HAL_Driver/Src/stm32f4xx_hal_rcc.c ****   *        at last one of the SPI clocks enabled (SPI1, SPI2 or SPI5).
 747:Drivers/STM32F4xx_HAL_Driver/Src/stm32f4xx_hal_rcc.c ****   * @retval None
 748:Drivers/STM32F4xx_HAL_Driver/Src/stm32f4xx_hal_rcc.c ****   */
 749:Drivers/STM32F4xx_HAL_Driver/Src/stm32f4xx_hal_rcc.c **** void HAL_RCC_MCOConfig(uint32_t RCC_MCOx, uint32_t RCC_MCOSource, uint32_t RCC_MCODiv)
 750:Drivers/STM32F4xx_HAL_Driver/Src/stm32f4xx_hal_rcc.c **** {
 841              		.loc 1 750 1 is_stmt 1 view -0
 842              		.cfi_startproc
 843              		@ args = 0, pretend = 0, frame = 32
 844              		@ frame_needed = 0, uses_anonymous_args = 0
 845              		.loc 1 750 1 is_stmt 0 view .LVU256
 846 0000 70B5     		push	{r4, r5, r6, lr}
 847              	.LCFI6:
 848              		.cfi_def_cfa_offset 16
 849              		.cfi_offset 4, -16
 850              		.cfi_offset 5, -12
 851              		.cfi_offset 6, -8
 852              		.cfi_offset 14, -4
 853 0002 88B0     		sub	sp, sp, #32
 854              	.LCFI7:
 855              		.cfi_def_cfa_offset 48
 856 0004 0C46     		mov	r4, r1
 857 0006 1646     		mov	r6, r2
 751:Drivers/STM32F4xx_HAL_Driver/Src/stm32f4xx_hal_rcc.c ****   GPIO_InitTypeDef GPIO_InitStruct;
 858              		.loc 1 751 3 is_stmt 1 view .LVU257
 752:Drivers/STM32F4xx_HAL_Driver/Src/stm32f4xx_hal_rcc.c ****   /* Check the parameters */
 753:Drivers/STM32F4xx_HAL_Driver/Src/stm32f4xx_hal_rcc.c ****   assert_param(IS_RCC_MCO(RCC_MCOx));
 859              		.loc 1 753 3 view .LVU258
 754:Drivers/STM32F4xx_HAL_Driver/Src/stm32f4xx_hal_rcc.c ****   assert_param(IS_RCC_MCODIV(RCC_MCODiv));
 860              		.loc 1 754 3 view .LVU259
 755:Drivers/STM32F4xx_HAL_Driver/Src/stm32f4xx_hal_rcc.c ****   /* RCC_MCO1 */
 756:Drivers/STM32F4xx_HAL_Driver/Src/stm32f4xx_hal_rcc.c ****   if(RCC_MCOx == RCC_MCO1)
 861              		.loc 1 756 3 view .LVU260
 862              		.loc 1 756 5 is_stmt 0 view .LVU261
 863 0008 00BB     		cbnz	r0, .L92
 757:Drivers/STM32F4xx_HAL_Driver/Src/stm32f4xx_hal_rcc.c ****   {
ARM GAS  C:\Users\ncer\AppData\Local\Temp\ccYOzh7d.s 			page 31


 758:Drivers/STM32F4xx_HAL_Driver/Src/stm32f4xx_hal_rcc.c ****     assert_param(IS_RCC_MCO1SOURCE(RCC_MCOSource));
 864              		.loc 1 758 5 is_stmt 1 view .LVU262
 759:Drivers/STM32F4xx_HAL_Driver/Src/stm32f4xx_hal_rcc.c **** 
 760:Drivers/STM32F4xx_HAL_Driver/Src/stm32f4xx_hal_rcc.c ****     /* MCO1 Clock Enable */
 761:Drivers/STM32F4xx_HAL_Driver/Src/stm32f4xx_hal_rcc.c ****     __MCO1_CLK_ENABLE();
 865              		.loc 1 761 5 view .LVU263
 866              	.LBB5:
 867              		.loc 1 761 5 view .LVU264
 868 000a 0023     		movs	r3, #0
 869 000c 0193     		str	r3, [sp, #4]
 870              		.loc 1 761 5 view .LVU265
 871 000e 204D     		ldr	r5, .L95
 872 0010 2A6B     		ldr	r2, [r5, #48]
 873              	.LVL60:
 874              		.loc 1 761 5 is_stmt 0 view .LVU266
 875 0012 42F00102 		orr	r2, r2, #1
 876 0016 2A63     		str	r2, [r5, #48]
 877              		.loc 1 761 5 is_stmt 1 view .LVU267
 878 0018 2A6B     		ldr	r2, [r5, #48]
 879 001a 02F00102 		and	r2, r2, #1
 880 001e 0192     		str	r2, [sp, #4]
 881              		.loc 1 761 5 view .LVU268
 882 0020 019A     		ldr	r2, [sp, #4]
 883              	.LBE5:
 762:Drivers/STM32F4xx_HAL_Driver/Src/stm32f4xx_hal_rcc.c **** 
 763:Drivers/STM32F4xx_HAL_Driver/Src/stm32f4xx_hal_rcc.c ****     /* Configure the MCO1 pin in alternate function mode */
 764:Drivers/STM32F4xx_HAL_Driver/Src/stm32f4xx_hal_rcc.c ****     GPIO_InitStruct.Pin = MCO1_PIN;
 884              		.loc 1 764 5 view .LVU269
 885              		.loc 1 764 25 is_stmt 0 view .LVU270
 886 0022 4FF48072 		mov	r2, #256
 887 0026 0392     		str	r2, [sp, #12]
 765:Drivers/STM32F4xx_HAL_Driver/Src/stm32f4xx_hal_rcc.c ****     GPIO_InitStruct.Mode = GPIO_MODE_AF_PP;
 888              		.loc 1 765 5 is_stmt 1 view .LVU271
 889              		.loc 1 765 26 is_stmt 0 view .LVU272
 890 0028 0222     		movs	r2, #2
 891 002a 0492     		str	r2, [sp, #16]
 766:Drivers/STM32F4xx_HAL_Driver/Src/stm32f4xx_hal_rcc.c ****     GPIO_InitStruct.Speed = GPIO_SPEED_FREQ_VERY_HIGH;
 892              		.loc 1 766 5 is_stmt 1 view .LVU273
 893              		.loc 1 766 27 is_stmt 0 view .LVU274
 894 002c 0322     		movs	r2, #3
 895 002e 0692     		str	r2, [sp, #24]
 767:Drivers/STM32F4xx_HAL_Driver/Src/stm32f4xx_hal_rcc.c ****     GPIO_InitStruct.Pull = GPIO_NOPULL;
 896              		.loc 1 767 5 is_stmt 1 view .LVU275
 897              		.loc 1 767 26 is_stmt 0 view .LVU276
 898 0030 0593     		str	r3, [sp, #20]
 768:Drivers/STM32F4xx_HAL_Driver/Src/stm32f4xx_hal_rcc.c ****     GPIO_InitStruct.Alternate = GPIO_AF0_MCO;
 899              		.loc 1 768 5 is_stmt 1 view .LVU277
 900              		.loc 1 768 31 is_stmt 0 view .LVU278
 901 0032 0793     		str	r3, [sp, #28]
 769:Drivers/STM32F4xx_HAL_Driver/Src/stm32f4xx_hal_rcc.c ****     HAL_GPIO_Init(MCO1_GPIO_PORT, &GPIO_InitStruct);
 902              		.loc 1 769 5 is_stmt 1 view .LVU279
 903 0034 03A9     		add	r1, sp, #12
 904              	.LVL61:
 905              		.loc 1 769 5 is_stmt 0 view .LVU280
 906 0036 1748     		ldr	r0, .L95+4
 907              	.LVL62:
 908              		.loc 1 769 5 view .LVU281
ARM GAS  C:\Users\ncer\AppData\Local\Temp\ccYOzh7d.s 			page 32


 909 0038 FFF7FEFF 		bl	HAL_GPIO_Init
 910              	.LVL63:
 770:Drivers/STM32F4xx_HAL_Driver/Src/stm32f4xx_hal_rcc.c **** 
 771:Drivers/STM32F4xx_HAL_Driver/Src/stm32f4xx_hal_rcc.c ****     /* Mask MCO1 and MCO1PRE[2:0] bits then Select MCO1 clock source and prescaler */
 772:Drivers/STM32F4xx_HAL_Driver/Src/stm32f4xx_hal_rcc.c ****     MODIFY_REG(RCC->CFGR, (RCC_CFGR_MCO1 | RCC_CFGR_MCO1PRE), (RCC_MCOSource | RCC_MCODiv));
 911              		.loc 1 772 5 is_stmt 1 view .LVU282
 912 003c AB68     		ldr	r3, [r5, #8]
 913 003e 23F0EC63 		bic	r3, r3, #123731968
 914 0042 3443     		orrs	r4, r4, r6
 915              	.LVL64:
 916              		.loc 1 772 5 is_stmt 0 view .LVU283
 917 0044 1C43     		orrs	r4, r4, r3
 918 0046 AC60     		str	r4, [r5, #8]
 919              	.L91:
 773:Drivers/STM32F4xx_HAL_Driver/Src/stm32f4xx_hal_rcc.c **** 
 774:Drivers/STM32F4xx_HAL_Driver/Src/stm32f4xx_hal_rcc.c ****    /* This RCC MCO1 enable feature is available only on STM32F410xx devices */
 775:Drivers/STM32F4xx_HAL_Driver/Src/stm32f4xx_hal_rcc.c **** #if defined(RCC_CFGR_MCO1EN)
 776:Drivers/STM32F4xx_HAL_Driver/Src/stm32f4xx_hal_rcc.c ****     __HAL_RCC_MCO1_ENABLE();
 777:Drivers/STM32F4xx_HAL_Driver/Src/stm32f4xx_hal_rcc.c **** #endif /* RCC_CFGR_MCO1EN */
 778:Drivers/STM32F4xx_HAL_Driver/Src/stm32f4xx_hal_rcc.c ****   }
 779:Drivers/STM32F4xx_HAL_Driver/Src/stm32f4xx_hal_rcc.c **** #if defined(RCC_CFGR_MCO2)
 780:Drivers/STM32F4xx_HAL_Driver/Src/stm32f4xx_hal_rcc.c ****   else
 781:Drivers/STM32F4xx_HAL_Driver/Src/stm32f4xx_hal_rcc.c ****   {
 782:Drivers/STM32F4xx_HAL_Driver/Src/stm32f4xx_hal_rcc.c ****     assert_param(IS_RCC_MCO2SOURCE(RCC_MCOSource));
 783:Drivers/STM32F4xx_HAL_Driver/Src/stm32f4xx_hal_rcc.c **** 
 784:Drivers/STM32F4xx_HAL_Driver/Src/stm32f4xx_hal_rcc.c ****     /* MCO2 Clock Enable */
 785:Drivers/STM32F4xx_HAL_Driver/Src/stm32f4xx_hal_rcc.c ****     __MCO2_CLK_ENABLE();
 786:Drivers/STM32F4xx_HAL_Driver/Src/stm32f4xx_hal_rcc.c **** 
 787:Drivers/STM32F4xx_HAL_Driver/Src/stm32f4xx_hal_rcc.c ****     /* Configure the MCO2 pin in alternate function mode */
 788:Drivers/STM32F4xx_HAL_Driver/Src/stm32f4xx_hal_rcc.c ****     GPIO_InitStruct.Pin = MCO2_PIN;
 789:Drivers/STM32F4xx_HAL_Driver/Src/stm32f4xx_hal_rcc.c ****     GPIO_InitStruct.Mode = GPIO_MODE_AF_PP;
 790:Drivers/STM32F4xx_HAL_Driver/Src/stm32f4xx_hal_rcc.c ****     GPIO_InitStruct.Speed = GPIO_SPEED_FREQ_VERY_HIGH;
 791:Drivers/STM32F4xx_HAL_Driver/Src/stm32f4xx_hal_rcc.c ****     GPIO_InitStruct.Pull = GPIO_NOPULL;
 792:Drivers/STM32F4xx_HAL_Driver/Src/stm32f4xx_hal_rcc.c ****     GPIO_InitStruct.Alternate = GPIO_AF0_MCO;
 793:Drivers/STM32F4xx_HAL_Driver/Src/stm32f4xx_hal_rcc.c ****     HAL_GPIO_Init(MCO2_GPIO_PORT, &GPIO_InitStruct);
 794:Drivers/STM32F4xx_HAL_Driver/Src/stm32f4xx_hal_rcc.c **** 
 795:Drivers/STM32F4xx_HAL_Driver/Src/stm32f4xx_hal_rcc.c ****     /* Mask MCO2 and MCO2PRE[2:0] bits then Select MCO2 clock source and prescaler */
 796:Drivers/STM32F4xx_HAL_Driver/Src/stm32f4xx_hal_rcc.c ****     MODIFY_REG(RCC->CFGR, (RCC_CFGR_MCO2 | RCC_CFGR_MCO2PRE), (RCC_MCOSource | (RCC_MCODiv << 3U)))
 797:Drivers/STM32F4xx_HAL_Driver/Src/stm32f4xx_hal_rcc.c **** 
 798:Drivers/STM32F4xx_HAL_Driver/Src/stm32f4xx_hal_rcc.c ****    /* This RCC MCO2 enable feature is available only on STM32F410Rx devices */
 799:Drivers/STM32F4xx_HAL_Driver/Src/stm32f4xx_hal_rcc.c **** #if defined(RCC_CFGR_MCO2EN)
 800:Drivers/STM32F4xx_HAL_Driver/Src/stm32f4xx_hal_rcc.c ****     __HAL_RCC_MCO2_ENABLE();
 801:Drivers/STM32F4xx_HAL_Driver/Src/stm32f4xx_hal_rcc.c **** #endif /* RCC_CFGR_MCO2EN */
 802:Drivers/STM32F4xx_HAL_Driver/Src/stm32f4xx_hal_rcc.c ****   }
 803:Drivers/STM32F4xx_HAL_Driver/Src/stm32f4xx_hal_rcc.c **** #endif /* RCC_CFGR_MCO2 */
 804:Drivers/STM32F4xx_HAL_Driver/Src/stm32f4xx_hal_rcc.c **** }
 920              		.loc 1 804 1 view .LVU284
 921 0048 08B0     		add	sp, sp, #32
 922              	.LCFI8:
 923              		.cfi_remember_state
 924              		.cfi_def_cfa_offset 16
 925              		@ sp needed
 926 004a 70BD     		pop	{r4, r5, r6, pc}
 927              	.LVL65:
 928              	.L92:
 929              	.LCFI9:
 930              		.cfi_restore_state
ARM GAS  C:\Users\ncer\AppData\Local\Temp\ccYOzh7d.s 			page 33


 782:Drivers/STM32F4xx_HAL_Driver/Src/stm32f4xx_hal_rcc.c **** 
 931              		.loc 1 782 5 is_stmt 1 view .LVU285
 785:Drivers/STM32F4xx_HAL_Driver/Src/stm32f4xx_hal_rcc.c **** 
 932              		.loc 1 785 5 view .LVU286
 933              	.LBB6:
 785:Drivers/STM32F4xx_HAL_Driver/Src/stm32f4xx_hal_rcc.c **** 
 934              		.loc 1 785 5 view .LVU287
 935 004c 0023     		movs	r3, #0
 936 004e 0293     		str	r3, [sp, #8]
 785:Drivers/STM32F4xx_HAL_Driver/Src/stm32f4xx_hal_rcc.c **** 
 937              		.loc 1 785 5 view .LVU288
 938 0050 0F4D     		ldr	r5, .L95
 939 0052 2A6B     		ldr	r2, [r5, #48]
 940              	.LVL66:
 785:Drivers/STM32F4xx_HAL_Driver/Src/stm32f4xx_hal_rcc.c **** 
 941              		.loc 1 785 5 is_stmt 0 view .LVU289
 942 0054 42F00402 		orr	r2, r2, #4
 943 0058 2A63     		str	r2, [r5, #48]
 785:Drivers/STM32F4xx_HAL_Driver/Src/stm32f4xx_hal_rcc.c **** 
 944              		.loc 1 785 5 is_stmt 1 view .LVU290
 945 005a 2A6B     		ldr	r2, [r5, #48]
 946 005c 02F00402 		and	r2, r2, #4
 947 0060 0292     		str	r2, [sp, #8]
 785:Drivers/STM32F4xx_HAL_Driver/Src/stm32f4xx_hal_rcc.c **** 
 948              		.loc 1 785 5 view .LVU291
 949 0062 029A     		ldr	r2, [sp, #8]
 950              	.LBE6:
 788:Drivers/STM32F4xx_HAL_Driver/Src/stm32f4xx_hal_rcc.c ****     GPIO_InitStruct.Mode = GPIO_MODE_AF_PP;
 951              		.loc 1 788 5 view .LVU292
 788:Drivers/STM32F4xx_HAL_Driver/Src/stm32f4xx_hal_rcc.c ****     GPIO_InitStruct.Mode = GPIO_MODE_AF_PP;
 952              		.loc 1 788 25 is_stmt 0 view .LVU293
 953 0064 4FF40072 		mov	r2, #512
 954 0068 0392     		str	r2, [sp, #12]
 789:Drivers/STM32F4xx_HAL_Driver/Src/stm32f4xx_hal_rcc.c ****     GPIO_InitStruct.Speed = GPIO_SPEED_FREQ_VERY_HIGH;
 955              		.loc 1 789 5 is_stmt 1 view .LVU294
 789:Drivers/STM32F4xx_HAL_Driver/Src/stm32f4xx_hal_rcc.c ****     GPIO_InitStruct.Speed = GPIO_SPEED_FREQ_VERY_HIGH;
 956              		.loc 1 789 26 is_stmt 0 view .LVU295
 957 006a 0222     		movs	r2, #2
 958 006c 0492     		str	r2, [sp, #16]
 790:Drivers/STM32F4xx_HAL_Driver/Src/stm32f4xx_hal_rcc.c ****     GPIO_InitStruct.Pull = GPIO_NOPULL;
 959              		.loc 1 790 5 is_stmt 1 view .LVU296
 790:Drivers/STM32F4xx_HAL_Driver/Src/stm32f4xx_hal_rcc.c ****     GPIO_InitStruct.Pull = GPIO_NOPULL;
 960              		.loc 1 790 27 is_stmt 0 view .LVU297
 961 006e 0322     		movs	r2, #3
 962 0070 0692     		str	r2, [sp, #24]
 791:Drivers/STM32F4xx_HAL_Driver/Src/stm32f4xx_hal_rcc.c ****     GPIO_InitStruct.Alternate = GPIO_AF0_MCO;
 963              		.loc 1 791 5 is_stmt 1 view .LVU298
 791:Drivers/STM32F4xx_HAL_Driver/Src/stm32f4xx_hal_rcc.c ****     GPIO_InitStruct.Alternate = GPIO_AF0_MCO;
 964              		.loc 1 791 26 is_stmt 0 view .LVU299
 965 0072 0593     		str	r3, [sp, #20]
 792:Drivers/STM32F4xx_HAL_Driver/Src/stm32f4xx_hal_rcc.c ****     HAL_GPIO_Init(MCO2_GPIO_PORT, &GPIO_InitStruct);
 966              		.loc 1 792 5 is_stmt 1 view .LVU300
 792:Drivers/STM32F4xx_HAL_Driver/Src/stm32f4xx_hal_rcc.c ****     HAL_GPIO_Init(MCO2_GPIO_PORT, &GPIO_InitStruct);
 967              		.loc 1 792 31 is_stmt 0 view .LVU301
 968 0074 0793     		str	r3, [sp, #28]
 793:Drivers/STM32F4xx_HAL_Driver/Src/stm32f4xx_hal_rcc.c **** 
 969              		.loc 1 793 5 is_stmt 1 view .LVU302
ARM GAS  C:\Users\ncer\AppData\Local\Temp\ccYOzh7d.s 			page 34


 970 0076 03A9     		add	r1, sp, #12
 971              	.LVL67:
 793:Drivers/STM32F4xx_HAL_Driver/Src/stm32f4xx_hal_rcc.c **** 
 972              		.loc 1 793 5 is_stmt 0 view .LVU303
 973 0078 0748     		ldr	r0, .L95+8
 974              	.LVL68:
 793:Drivers/STM32F4xx_HAL_Driver/Src/stm32f4xx_hal_rcc.c **** 
 975              		.loc 1 793 5 view .LVU304
 976 007a FFF7FEFF 		bl	HAL_GPIO_Init
 977              	.LVL69:
 796:Drivers/STM32F4xx_HAL_Driver/Src/stm32f4xx_hal_rcc.c **** 
 978              		.loc 1 796 5 is_stmt 1 view .LVU305
 979 007e AB68     		ldr	r3, [r5, #8]
 980 0080 23F07843 		bic	r3, r3, #-134217728
 981 0084 44EAC604 		orr	r4, r4, r6, lsl #3
 982              	.LVL70:
 796:Drivers/STM32F4xx_HAL_Driver/Src/stm32f4xx_hal_rcc.c **** 
 983              		.loc 1 796 5 is_stmt 0 view .LVU306
 984 0088 1C43     		orrs	r4, r4, r3
 985 008a AC60     		str	r4, [r5, #8]
 986              		.loc 1 804 1 view .LVU307
 987 008c DCE7     		b	.L91
 988              	.L96:
 989 008e 00BF     		.align	2
 990              	.L95:
 991 0090 00380240 		.word	1073887232
 992 0094 00000240 		.word	1073872896
 993 0098 00080240 		.word	1073874944
 994              		.cfi_endproc
 995              	.LFE133:
 997              		.section	.text.HAL_RCC_EnableCSS,"ax",%progbits
 998              		.align	1
 999              		.global	HAL_RCC_EnableCSS
 1000              		.syntax unified
 1001              		.thumb
 1002              		.thumb_func
 1003              		.fpu fpv4-sp-d16
 1005              	HAL_RCC_EnableCSS:
 1006              	.LFB134:
 805:Drivers/STM32F4xx_HAL_Driver/Src/stm32f4xx_hal_rcc.c **** 
 806:Drivers/STM32F4xx_HAL_Driver/Src/stm32f4xx_hal_rcc.c **** /**
 807:Drivers/STM32F4xx_HAL_Driver/Src/stm32f4xx_hal_rcc.c ****   * @brief  Enables the Clock Security System.
 808:Drivers/STM32F4xx_HAL_Driver/Src/stm32f4xx_hal_rcc.c ****   * @note   If a failure is detected on the HSE oscillator clock, this oscillator
 809:Drivers/STM32F4xx_HAL_Driver/Src/stm32f4xx_hal_rcc.c ****   *         is automatically disabled and an interrupt is generated to inform the
 810:Drivers/STM32F4xx_HAL_Driver/Src/stm32f4xx_hal_rcc.c ****   *         software about the failure (Clock Security System Interrupt, CSSI),
 811:Drivers/STM32F4xx_HAL_Driver/Src/stm32f4xx_hal_rcc.c ****   *         allowing the MCU to perform rescue operations. The CSSI is linked to
 812:Drivers/STM32F4xx_HAL_Driver/Src/stm32f4xx_hal_rcc.c ****   *         the Cortex-M4 NMI (Non-Maskable Interrupt) exception vector.
 813:Drivers/STM32F4xx_HAL_Driver/Src/stm32f4xx_hal_rcc.c ****   * @retval None
 814:Drivers/STM32F4xx_HAL_Driver/Src/stm32f4xx_hal_rcc.c ****   */
 815:Drivers/STM32F4xx_HAL_Driver/Src/stm32f4xx_hal_rcc.c **** void HAL_RCC_EnableCSS(void)
 816:Drivers/STM32F4xx_HAL_Driver/Src/stm32f4xx_hal_rcc.c **** {
 1007              		.loc 1 816 1 is_stmt 1 view -0
 1008              		.cfi_startproc
 1009              		@ args = 0, pretend = 0, frame = 0
 1010              		@ frame_needed = 0, uses_anonymous_args = 0
 1011              		@ link register save eliminated.
 817:Drivers/STM32F4xx_HAL_Driver/Src/stm32f4xx_hal_rcc.c ****   *(__IO uint32_t *) RCC_CR_CSSON_BB = (uint32_t)ENABLE;
ARM GAS  C:\Users\ncer\AppData\Local\Temp\ccYOzh7d.s 			page 35


 1012              		.loc 1 817 3 view .LVU309
 1013              		.loc 1 817 38 is_stmt 0 view .LVU310
 1014 0000 014B     		ldr	r3, .L98
 1015 0002 0122     		movs	r2, #1
 1016 0004 1A60     		str	r2, [r3]
 818:Drivers/STM32F4xx_HAL_Driver/Src/stm32f4xx_hal_rcc.c **** }
 1017              		.loc 1 818 1 view .LVU311
 1018 0006 7047     		bx	lr
 1019              	.L99:
 1020              		.align	2
 1021              	.L98:
 1022 0008 4C004742 		.word	1111949388
 1023              		.cfi_endproc
 1024              	.LFE134:
 1026              		.section	.text.HAL_RCC_DisableCSS,"ax",%progbits
 1027              		.align	1
 1028              		.global	HAL_RCC_DisableCSS
 1029              		.syntax unified
 1030              		.thumb
 1031              		.thumb_func
 1032              		.fpu fpv4-sp-d16
 1034              	HAL_RCC_DisableCSS:
 1035              	.LFB135:
 819:Drivers/STM32F4xx_HAL_Driver/Src/stm32f4xx_hal_rcc.c **** 
 820:Drivers/STM32F4xx_HAL_Driver/Src/stm32f4xx_hal_rcc.c **** /**
 821:Drivers/STM32F4xx_HAL_Driver/Src/stm32f4xx_hal_rcc.c ****   * @brief  Disables the Clock Security System.
 822:Drivers/STM32F4xx_HAL_Driver/Src/stm32f4xx_hal_rcc.c ****   * @retval None
 823:Drivers/STM32F4xx_HAL_Driver/Src/stm32f4xx_hal_rcc.c ****   */
 824:Drivers/STM32F4xx_HAL_Driver/Src/stm32f4xx_hal_rcc.c **** void HAL_RCC_DisableCSS(void)
 825:Drivers/STM32F4xx_HAL_Driver/Src/stm32f4xx_hal_rcc.c **** {
 1036              		.loc 1 825 1 is_stmt 1 view -0
 1037              		.cfi_startproc
 1038              		@ args = 0, pretend = 0, frame = 0
 1039              		@ frame_needed = 0, uses_anonymous_args = 0
 1040              		@ link register save eliminated.
 826:Drivers/STM32F4xx_HAL_Driver/Src/stm32f4xx_hal_rcc.c ****   *(__IO uint32_t *) RCC_CR_CSSON_BB = (uint32_t)DISABLE;
 1041              		.loc 1 826 3 view .LVU313
 1042              		.loc 1 826 38 is_stmt 0 view .LVU314
 1043 0000 014B     		ldr	r3, .L101
 1044 0002 0022     		movs	r2, #0
 1045 0004 1A60     		str	r2, [r3]
 827:Drivers/STM32F4xx_HAL_Driver/Src/stm32f4xx_hal_rcc.c **** }
 1046              		.loc 1 827 1 view .LVU315
 1047 0006 7047     		bx	lr
 1048              	.L102:
 1049              		.align	2
 1050              	.L101:
 1051 0008 4C004742 		.word	1111949388
 1052              		.cfi_endproc
 1053              	.LFE135:
 1055              		.global	__aeabi_uldivmod
 1056              		.section	.text.HAL_RCC_GetSysClockFreq,"ax",%progbits
 1057              		.align	1
 1058              		.weak	HAL_RCC_GetSysClockFreq
 1059              		.syntax unified
 1060              		.thumb
 1061              		.thumb_func
ARM GAS  C:\Users\ncer\AppData\Local\Temp\ccYOzh7d.s 			page 36


 1062              		.fpu fpv4-sp-d16
 1064              	HAL_RCC_GetSysClockFreq:
 1065              	.LFB136:
 828:Drivers/STM32F4xx_HAL_Driver/Src/stm32f4xx_hal_rcc.c **** 
 829:Drivers/STM32F4xx_HAL_Driver/Src/stm32f4xx_hal_rcc.c **** /**
 830:Drivers/STM32F4xx_HAL_Driver/Src/stm32f4xx_hal_rcc.c ****   * @brief  Returns the SYSCLK frequency
 831:Drivers/STM32F4xx_HAL_Driver/Src/stm32f4xx_hal_rcc.c ****   *
 832:Drivers/STM32F4xx_HAL_Driver/Src/stm32f4xx_hal_rcc.c ****   * @note   The system frequency computed by this function is not the real
 833:Drivers/STM32F4xx_HAL_Driver/Src/stm32f4xx_hal_rcc.c ****   *         frequency in the chip. It is calculated based on the predefined
 834:Drivers/STM32F4xx_HAL_Driver/Src/stm32f4xx_hal_rcc.c ****   *         constant and the selected clock source:
 835:Drivers/STM32F4xx_HAL_Driver/Src/stm32f4xx_hal_rcc.c ****   * @note     If SYSCLK source is HSI, function returns values based on HSI_VALUE(*)
 836:Drivers/STM32F4xx_HAL_Driver/Src/stm32f4xx_hal_rcc.c ****   * @note     If SYSCLK source is HSE, function returns values based on HSE_VALUE(**)
 837:Drivers/STM32F4xx_HAL_Driver/Src/stm32f4xx_hal_rcc.c ****   * @note     If SYSCLK source is PLL, function returns values based on HSE_VALUE(**)
 838:Drivers/STM32F4xx_HAL_Driver/Src/stm32f4xx_hal_rcc.c ****   *           or HSI_VALUE(*) multiplied/divided by the PLL factors.
 839:Drivers/STM32F4xx_HAL_Driver/Src/stm32f4xx_hal_rcc.c ****   * @note     (*) HSI_VALUE is a constant defined in stm32f4xx_hal_conf.h file (default value
 840:Drivers/STM32F4xx_HAL_Driver/Src/stm32f4xx_hal_rcc.c ****   *               16 MHz) but the real value may vary depending on the variations
 841:Drivers/STM32F4xx_HAL_Driver/Src/stm32f4xx_hal_rcc.c ****   *               in voltage and temperature.
 842:Drivers/STM32F4xx_HAL_Driver/Src/stm32f4xx_hal_rcc.c ****   * @note     (**) HSE_VALUE is a constant defined in stm32f4xx_hal_conf.h file (default value
 843:Drivers/STM32F4xx_HAL_Driver/Src/stm32f4xx_hal_rcc.c ****   *                25 MHz), user has to ensure that HSE_VALUE is same as the real
 844:Drivers/STM32F4xx_HAL_Driver/Src/stm32f4xx_hal_rcc.c ****   *                frequency of the crystal used. Otherwise, this function may
 845:Drivers/STM32F4xx_HAL_Driver/Src/stm32f4xx_hal_rcc.c ****   *                have wrong result.
 846:Drivers/STM32F4xx_HAL_Driver/Src/stm32f4xx_hal_rcc.c ****   *
 847:Drivers/STM32F4xx_HAL_Driver/Src/stm32f4xx_hal_rcc.c ****   * @note   The result of this function could be not correct when using fractional
 848:Drivers/STM32F4xx_HAL_Driver/Src/stm32f4xx_hal_rcc.c ****   *         value for HSE crystal.
 849:Drivers/STM32F4xx_HAL_Driver/Src/stm32f4xx_hal_rcc.c ****   *
 850:Drivers/STM32F4xx_HAL_Driver/Src/stm32f4xx_hal_rcc.c ****   * @note   This function can be used by the user application to compute the
 851:Drivers/STM32F4xx_HAL_Driver/Src/stm32f4xx_hal_rcc.c ****   *         baudrate for the communication peripherals or configure other parameters.
 852:Drivers/STM32F4xx_HAL_Driver/Src/stm32f4xx_hal_rcc.c ****   *
 853:Drivers/STM32F4xx_HAL_Driver/Src/stm32f4xx_hal_rcc.c ****   * @note   Each time SYSCLK changes, this function must be called to update the
 854:Drivers/STM32F4xx_HAL_Driver/Src/stm32f4xx_hal_rcc.c ****   *         right SYSCLK value. Otherwise, any configuration based on this function will be incorre
 855:Drivers/STM32F4xx_HAL_Driver/Src/stm32f4xx_hal_rcc.c ****   *
 856:Drivers/STM32F4xx_HAL_Driver/Src/stm32f4xx_hal_rcc.c ****   *
 857:Drivers/STM32F4xx_HAL_Driver/Src/stm32f4xx_hal_rcc.c ****   * @retval SYSCLK frequency
 858:Drivers/STM32F4xx_HAL_Driver/Src/stm32f4xx_hal_rcc.c ****   */
 859:Drivers/STM32F4xx_HAL_Driver/Src/stm32f4xx_hal_rcc.c **** __weak uint32_t HAL_RCC_GetSysClockFreq(void)
 860:Drivers/STM32F4xx_HAL_Driver/Src/stm32f4xx_hal_rcc.c **** {
 1066              		.loc 1 860 1 is_stmt 1 view -0
 1067              		.cfi_startproc
 1068              		@ args = 0, pretend = 0, frame = 0
 1069              		@ frame_needed = 0, uses_anonymous_args = 0
 861:Drivers/STM32F4xx_HAL_Driver/Src/stm32f4xx_hal_rcc.c ****   uint32_t pllm = 0U, pllvco = 0U, pllp = 0U;
 1070              		.loc 1 861 3 view .LVU317
 1071              	.LVL71:
 862:Drivers/STM32F4xx_HAL_Driver/Src/stm32f4xx_hal_rcc.c ****   uint32_t sysclockfreq = 0U;
 1072              		.loc 1 862 3 view .LVU318
 863:Drivers/STM32F4xx_HAL_Driver/Src/stm32f4xx_hal_rcc.c **** 
 864:Drivers/STM32F4xx_HAL_Driver/Src/stm32f4xx_hal_rcc.c ****   /* Get SYSCLK source -------------------------------------------------------*/
 865:Drivers/STM32F4xx_HAL_Driver/Src/stm32f4xx_hal_rcc.c ****   switch (RCC->CFGR & RCC_CFGR_SWS)
 1073              		.loc 1 865 3 view .LVU319
 1074              		.loc 1 865 14 is_stmt 0 view .LVU320
 1075 0000 314B     		ldr	r3, .L113
 1076 0002 9B68     		ldr	r3, [r3, #8]
 1077              		.loc 1 865 21 view .LVU321
 1078 0004 03F00C03 		and	r3, r3, #12
 1079              		.loc 1 865 3 view .LVU322
 1080 0008 042B     		cmp	r3, #4
 1081 000a 58D0     		beq	.L107
ARM GAS  C:\Users\ncer\AppData\Local\Temp\ccYOzh7d.s 			page 37


 1082 000c 082B     		cmp	r3, #8
 1083 000e 58D1     		bne	.L108
 860:Drivers/STM32F4xx_HAL_Driver/Src/stm32f4xx_hal_rcc.c ****   uint32_t pllm = 0U, pllvco = 0U, pllp = 0U;
 1084              		.loc 1 860 1 view .LVU323
 1085 0010 70B5     		push	{r4, r5, r6, lr}
 1086              	.LCFI10:
 1087              		.cfi_def_cfa_offset 16
 1088              		.cfi_offset 4, -16
 1089              		.cfi_offset 5, -12
 1090              		.cfi_offset 6, -8
 1091              		.cfi_offset 14, -4
 866:Drivers/STM32F4xx_HAL_Driver/Src/stm32f4xx_hal_rcc.c ****   {
 867:Drivers/STM32F4xx_HAL_Driver/Src/stm32f4xx_hal_rcc.c ****     case RCC_CFGR_SWS_HSI:  /* HSI used as system clock source */
 868:Drivers/STM32F4xx_HAL_Driver/Src/stm32f4xx_hal_rcc.c ****     {
 869:Drivers/STM32F4xx_HAL_Driver/Src/stm32f4xx_hal_rcc.c ****       sysclockfreq = HSI_VALUE;
 870:Drivers/STM32F4xx_HAL_Driver/Src/stm32f4xx_hal_rcc.c ****        break;
 871:Drivers/STM32F4xx_HAL_Driver/Src/stm32f4xx_hal_rcc.c ****     }
 872:Drivers/STM32F4xx_HAL_Driver/Src/stm32f4xx_hal_rcc.c ****     case RCC_CFGR_SWS_HSE:  /* HSE used as system clock  source */
 873:Drivers/STM32F4xx_HAL_Driver/Src/stm32f4xx_hal_rcc.c ****     {
 874:Drivers/STM32F4xx_HAL_Driver/Src/stm32f4xx_hal_rcc.c ****       sysclockfreq = HSE_VALUE;
 875:Drivers/STM32F4xx_HAL_Driver/Src/stm32f4xx_hal_rcc.c ****       break;
 876:Drivers/STM32F4xx_HAL_Driver/Src/stm32f4xx_hal_rcc.c ****     }
 877:Drivers/STM32F4xx_HAL_Driver/Src/stm32f4xx_hal_rcc.c ****     case RCC_CFGR_SWS_PLL:  /* PLL used as system clock  source */
 878:Drivers/STM32F4xx_HAL_Driver/Src/stm32f4xx_hal_rcc.c ****     {
 879:Drivers/STM32F4xx_HAL_Driver/Src/stm32f4xx_hal_rcc.c ****       /* PLL_VCO = (HSE_VALUE or HSI_VALUE / PLLM) * PLLN
 880:Drivers/STM32F4xx_HAL_Driver/Src/stm32f4xx_hal_rcc.c ****       SYSCLK = PLL_VCO / PLLP */
 881:Drivers/STM32F4xx_HAL_Driver/Src/stm32f4xx_hal_rcc.c ****       pllm = RCC->PLLCFGR & RCC_PLLCFGR_PLLM;
 1092              		.loc 1 881 7 is_stmt 1 view .LVU324
 1093              		.loc 1 881 17 is_stmt 0 view .LVU325
 1094 0012 2D4B     		ldr	r3, .L113
 1095 0014 5A68     		ldr	r2, [r3, #4]
 1096              		.loc 1 881 12 view .LVU326
 1097 0016 02F03F02 		and	r2, r2, #63
 1098              	.LVL72:
 882:Drivers/STM32F4xx_HAL_Driver/Src/stm32f4xx_hal_rcc.c ****       if(__HAL_RCC_GET_PLL_OSCSOURCE() != RCC_PLLSOURCE_HSI)
 1099              		.loc 1 882 7 is_stmt 1 view .LVU327
 1100              		.loc 1 882 10 is_stmt 0 view .LVU328
 1101 001a 5B68     		ldr	r3, [r3, #4]
 1102              		.loc 1 882 9 view .LVU329
 1103 001c 13F4800F 		tst	r3, #4194304
 1104 0020 2AD0     		beq	.L105
 883:Drivers/STM32F4xx_HAL_Driver/Src/stm32f4xx_hal_rcc.c ****       {
 884:Drivers/STM32F4xx_HAL_Driver/Src/stm32f4xx_hal_rcc.c ****         /* HSE used as PLL clock source */
 885:Drivers/STM32F4xx_HAL_Driver/Src/stm32f4xx_hal_rcc.c ****         pllvco = (uint32_t) ((((uint64_t) HSE_VALUE * ((uint64_t) ((RCC->PLLCFGR & RCC_PLLCFGR_PLLN
 1105              		.loc 1 885 9 is_stmt 1 view .LVU330
 1106              		.loc 1 885 72 is_stmt 0 view .LVU331
 1107 0022 294B     		ldr	r3, .L113
 1108 0024 5868     		ldr	r0, [r3, #4]
 1109              		.loc 1 885 56 view .LVU332
 1110 0026 C0F38810 		ubfx	r0, r0, #6, #9
 1111 002a 0546     		mov	r5, r0
 1112 002c 0026     		movs	r6, #0
 1113              		.loc 1 885 53 view .LVU333
 1114 002e 4301     		lsls	r3, r0, #5
 1115 0030 1B1A     		subs	r3, r3, r0
 1116 0032 66EB0604 		sbc	r4, r6, r6
 1117 0036 A101     		lsls	r1, r4, #6
ARM GAS  C:\Users\ncer\AppData\Local\Temp\ccYOzh7d.s 			page 38


 1118 0038 41EA9361 		orr	r1, r1, r3, lsr #26
 1119 003c 9801     		lsls	r0, r3, #6
 1120 003e C01A     		subs	r0, r0, r3
 1121 0040 61EB0401 		sbc	r1, r1, r4
 1122 0044 CB00     		lsls	r3, r1, #3
 1123 0046 43EA5073 		orr	r3, r3, r0, lsr #29
 1124 004a C400     		lsls	r4, r0, #3
 1125 004c 1946     		mov	r1, r3
 1126 004e 6019     		adds	r0, r4, r5
 1127 0050 46EB0101 		adc	r1, r6, r1
 1128 0054 4B02     		lsls	r3, r1, #9
 1129 0056 43EAD053 		orr	r3, r3, r0, lsr #23
 1130 005a 4402     		lsls	r4, r0, #9
 1131 005c 2046     		mov	r0, r4
 1132 005e 1946     		mov	r1, r3
 1133              		.loc 1 885 130 view .LVU334
 1134 0060 3346     		mov	r3, r6
 1135 0062 FFF7FEFF 		bl	__aeabi_uldivmod
 1136              	.LVL73:
 1137              	.L106:
 886:Drivers/STM32F4xx_HAL_Driver/Src/stm32f4xx_hal_rcc.c ****       }
 887:Drivers/STM32F4xx_HAL_Driver/Src/stm32f4xx_hal_rcc.c ****       else
 888:Drivers/STM32F4xx_HAL_Driver/Src/stm32f4xx_hal_rcc.c ****       {
 889:Drivers/STM32F4xx_HAL_Driver/Src/stm32f4xx_hal_rcc.c ****         /* HSI used as PLL clock source */
 890:Drivers/STM32F4xx_HAL_Driver/Src/stm32f4xx_hal_rcc.c ****         pllvco = (uint32_t) ((((uint64_t) HSI_VALUE * ((uint64_t) ((RCC->PLLCFGR & RCC_PLLCFGR_PLLN
 891:Drivers/STM32F4xx_HAL_Driver/Src/stm32f4xx_hal_rcc.c ****       }
 892:Drivers/STM32F4xx_HAL_Driver/Src/stm32f4xx_hal_rcc.c ****       pllp = ((((RCC->PLLCFGR & RCC_PLLCFGR_PLLP) >> RCC_PLLCFGR_PLLP_Pos) + 1U) *2U);
 1138              		.loc 1 892 7 is_stmt 1 view .LVU335
 1139              		.loc 1 892 21 is_stmt 0 view .LVU336
 1140 0066 184B     		ldr	r3, .L113
 1141 0068 5B68     		ldr	r3, [r3, #4]
 1142              		.loc 1 892 51 view .LVU337
 1143 006a C3F30143 		ubfx	r3, r3, #16, #2
 1144              		.loc 1 892 82 view .LVU338
 1145 006e 0133     		adds	r3, r3, #1
 1146              		.loc 1 892 12 view .LVU339
 1147 0070 5B00     		lsls	r3, r3, #1
 1148              	.LVL74:
 893:Drivers/STM32F4xx_HAL_Driver/Src/stm32f4xx_hal_rcc.c **** 
 894:Drivers/STM32F4xx_HAL_Driver/Src/stm32f4xx_hal_rcc.c ****       sysclockfreq = pllvco/pllp;
 1149              		.loc 1 894 7 is_stmt 1 view .LVU340
 1150              		.loc 1 894 20 is_stmt 0 view .LVU341
 1151 0072 B0FBF3F0 		udiv	r0, r0, r3
 1152              	.LVL75:
 895:Drivers/STM32F4xx_HAL_Driver/Src/stm32f4xx_hal_rcc.c ****       break;
 1153              		.loc 1 895 7 is_stmt 1 view .LVU342
 896:Drivers/STM32F4xx_HAL_Driver/Src/stm32f4xx_hal_rcc.c ****     }
 897:Drivers/STM32F4xx_HAL_Driver/Src/stm32f4xx_hal_rcc.c ****     default:
 898:Drivers/STM32F4xx_HAL_Driver/Src/stm32f4xx_hal_rcc.c ****     {
 899:Drivers/STM32F4xx_HAL_Driver/Src/stm32f4xx_hal_rcc.c ****       sysclockfreq = HSI_VALUE;
 900:Drivers/STM32F4xx_HAL_Driver/Src/stm32f4xx_hal_rcc.c ****       break;
 901:Drivers/STM32F4xx_HAL_Driver/Src/stm32f4xx_hal_rcc.c ****     }
 902:Drivers/STM32F4xx_HAL_Driver/Src/stm32f4xx_hal_rcc.c ****   }
 903:Drivers/STM32F4xx_HAL_Driver/Src/stm32f4xx_hal_rcc.c ****   return sysclockfreq;
 904:Drivers/STM32F4xx_HAL_Driver/Src/stm32f4xx_hal_rcc.c **** }
 1154              		.loc 1 904 1 is_stmt 0 view .LVU343
 1155 0076 70BD     		pop	{r4, r5, r6, pc}
ARM GAS  C:\Users\ncer\AppData\Local\Temp\ccYOzh7d.s 			page 39


 1156              	.LVL76:
 1157              	.L105:
 890:Drivers/STM32F4xx_HAL_Driver/Src/stm32f4xx_hal_rcc.c ****       }
 1158              		.loc 1 890 9 is_stmt 1 view .LVU344
 890:Drivers/STM32F4xx_HAL_Driver/Src/stm32f4xx_hal_rcc.c ****       }
 1159              		.loc 1 890 72 is_stmt 0 view .LVU345
 1160 0078 134B     		ldr	r3, .L113
 1161 007a 5868     		ldr	r0, [r3, #4]
 890:Drivers/STM32F4xx_HAL_Driver/Src/stm32f4xx_hal_rcc.c ****       }
 1162              		.loc 1 890 56 view .LVU346
 1163 007c C0F38810 		ubfx	r0, r0, #6, #9
 1164 0080 0546     		mov	r5, r0
 1165 0082 0026     		movs	r6, #0
 890:Drivers/STM32F4xx_HAL_Driver/Src/stm32f4xx_hal_rcc.c ****       }
 1166              		.loc 1 890 53 view .LVU347
 1167 0084 4301     		lsls	r3, r0, #5
 1168 0086 1B1A     		subs	r3, r3, r0
 1169 0088 66EB0604 		sbc	r4, r6, r6
 1170 008c A101     		lsls	r1, r4, #6
 1171 008e 41EA9361 		orr	r1, r1, r3, lsr #26
 1172 0092 9801     		lsls	r0, r3, #6
 1173 0094 C01A     		subs	r0, r0, r3
 1174 0096 61EB0401 		sbc	r1, r1, r4
 1175 009a CB00     		lsls	r3, r1, #3
 1176 009c 43EA5073 		orr	r3, r3, r0, lsr #29
 1177 00a0 C400     		lsls	r4, r0, #3
 1178 00a2 1946     		mov	r1, r3
 1179 00a4 6019     		adds	r0, r4, r5
 1180 00a6 46EB0101 		adc	r1, r6, r1
 1181 00aa 8B02     		lsls	r3, r1, #10
 1182 00ac 43EA9053 		orr	r3, r3, r0, lsr #22
 1183 00b0 8402     		lsls	r4, r0, #10
 1184 00b2 2046     		mov	r0, r4
 1185 00b4 1946     		mov	r1, r3
 890:Drivers/STM32F4xx_HAL_Driver/Src/stm32f4xx_hal_rcc.c ****       }
 1186              		.loc 1 890 130 view .LVU348
 1187 00b6 3346     		mov	r3, r6
 1188 00b8 FFF7FEFF 		bl	__aeabi_uldivmod
 1189              	.LVL77:
 890:Drivers/STM32F4xx_HAL_Driver/Src/stm32f4xx_hal_rcc.c ****       }
 1190              		.loc 1 890 130 view .LVU349
 1191 00bc D3E7     		b	.L106
 1192              	.LVL78:
 1193              	.L107:
 1194              	.LCFI11:
 1195              		.cfi_def_cfa_offset 0
 1196              		.cfi_restore 4
 1197              		.cfi_restore 5
 1198              		.cfi_restore 6
 1199              		.cfi_restore 14
 874:Drivers/STM32F4xx_HAL_Driver/Src/stm32f4xx_hal_rcc.c ****       break;
 1200              		.loc 1 874 20 view .LVU350
 1201 00be 0348     		ldr	r0, .L113+4
 1202 00c0 7047     		bx	lr
 1203              	.L108:
 869:Drivers/STM32F4xx_HAL_Driver/Src/stm32f4xx_hal_rcc.c ****        break;
 1204              		.loc 1 869 20 view .LVU351
ARM GAS  C:\Users\ncer\AppData\Local\Temp\ccYOzh7d.s 			page 40


 1205 00c2 0348     		ldr	r0, .L113+8
 1206              	.LVL79:
 903:Drivers/STM32F4xx_HAL_Driver/Src/stm32f4xx_hal_rcc.c **** }
 1207              		.loc 1 903 3 is_stmt 1 view .LVU352
 1208              		.loc 1 904 1 is_stmt 0 view .LVU353
 1209 00c4 7047     		bx	lr
 1210              	.L114:
 1211 00c6 00BF     		.align	2
 1212              	.L113:
 1213 00c8 00380240 		.word	1073887232
 1214 00cc 00127A00 		.word	8000000
 1215 00d0 0024F400 		.word	16000000
 1216              		.cfi_endproc
 1217              	.LFE136:
 1219              		.section	.text.HAL_RCC_ClockConfig,"ax",%progbits
 1220              		.align	1
 1221              		.global	HAL_RCC_ClockConfig
 1222              		.syntax unified
 1223              		.thumb
 1224              		.thumb_func
 1225              		.fpu fpv4-sp-d16
 1227              	HAL_RCC_ClockConfig:
 1228              	.LVL80:
 1229              	.LFB132:
 566:Drivers/STM32F4xx_HAL_Driver/Src/stm32f4xx_hal_rcc.c ****   uint32_t tickstart;
 1230              		.loc 1 566 1 is_stmt 1 view -0
 1231              		.cfi_startproc
 1232              		@ args = 0, pretend = 0, frame = 0
 1233              		@ frame_needed = 0, uses_anonymous_args = 0
 567:Drivers/STM32F4xx_HAL_Driver/Src/stm32f4xx_hal_rcc.c **** 
 1234              		.loc 1 567 3 view .LVU355
 570:Drivers/STM32F4xx_HAL_Driver/Src/stm32f4xx_hal_rcc.c ****   {
 1235              		.loc 1 570 3 view .LVU356
 570:Drivers/STM32F4xx_HAL_Driver/Src/stm32f4xx_hal_rcc.c ****   {
 1236              		.loc 1 570 5 is_stmt 0 view .LVU357
 1237 0000 0028     		cmp	r0, #0
 1238 0002 00F09A80 		beq	.L130
 566:Drivers/STM32F4xx_HAL_Driver/Src/stm32f4xx_hal_rcc.c ****   uint32_t tickstart;
 1239              		.loc 1 566 1 view .LVU358
 1240 0006 70B5     		push	{r4, r5, r6, lr}
 1241              	.LCFI12:
 1242              		.cfi_def_cfa_offset 16
 1243              		.cfi_offset 4, -16
 1244              		.cfi_offset 5, -12
 1245              		.cfi_offset 6, -8
 1246              		.cfi_offset 14, -4
 1247 0008 0446     		mov	r4, r0
 576:Drivers/STM32F4xx_HAL_Driver/Src/stm32f4xx_hal_rcc.c ****   assert_param(IS_FLASH_LATENCY(FLatency));
 1248              		.loc 1 576 3 is_stmt 1 view .LVU359
 577:Drivers/STM32F4xx_HAL_Driver/Src/stm32f4xx_hal_rcc.c **** 
 1249              		.loc 1 577 3 view .LVU360
 584:Drivers/STM32F4xx_HAL_Driver/Src/stm32f4xx_hal_rcc.c ****   {
 1250              		.loc 1 584 3 view .LVU361
 584:Drivers/STM32F4xx_HAL_Driver/Src/stm32f4xx_hal_rcc.c ****   {
 1251              		.loc 1 584 17 is_stmt 0 view .LVU362
 1252 000a 504B     		ldr	r3, .L143
 1253 000c 1B68     		ldr	r3, [r3]
ARM GAS  C:\Users\ncer\AppData\Local\Temp\ccYOzh7d.s 			page 41


 1254 000e 03F00F03 		and	r3, r3, #15
 584:Drivers/STM32F4xx_HAL_Driver/Src/stm32f4xx_hal_rcc.c ****   {
 1255              		.loc 1 584 5 view .LVU363
 1256 0012 8B42     		cmp	r3, r1
 1257 0014 08D2     		bcs	.L117
 587:Drivers/STM32F4xx_HAL_Driver/Src/stm32f4xx_hal_rcc.c **** 
 1258              		.loc 1 587 5 is_stmt 1 view .LVU364
 1259 0016 CBB2     		uxtb	r3, r1
 1260 0018 4C4A     		ldr	r2, .L143
 1261 001a 1370     		strb	r3, [r2]
 591:Drivers/STM32F4xx_HAL_Driver/Src/stm32f4xx_hal_rcc.c ****     {
 1262              		.loc 1 591 5 view .LVU365
 591:Drivers/STM32F4xx_HAL_Driver/Src/stm32f4xx_hal_rcc.c ****     {
 1263              		.loc 1 591 8 is_stmt 0 view .LVU366
 1264 001c 1368     		ldr	r3, [r2]
 1265 001e 03F00F03 		and	r3, r3, #15
 591:Drivers/STM32F4xx_HAL_Driver/Src/stm32f4xx_hal_rcc.c ****     {
 1266              		.loc 1 591 7 view .LVU367
 1267 0022 8B42     		cmp	r3, r1
 1268 0024 40F08B80 		bne	.L131
 1269              	.L117:
 598:Drivers/STM32F4xx_HAL_Driver/Src/stm32f4xx_hal_rcc.c ****   {
 1270              		.loc 1 598 3 is_stmt 1 view .LVU368
 598:Drivers/STM32F4xx_HAL_Driver/Src/stm32f4xx_hal_rcc.c ****   {
 1271              		.loc 1 598 25 is_stmt 0 view .LVU369
 1272 0028 2368     		ldr	r3, [r4]
 598:Drivers/STM32F4xx_HAL_Driver/Src/stm32f4xx_hal_rcc.c ****   {
 1273              		.loc 1 598 5 view .LVU370
 1274 002a 13F0020F 		tst	r3, #2
 1275 002e 17D0     		beq	.L118
 602:Drivers/STM32F4xx_HAL_Driver/Src/stm32f4xx_hal_rcc.c ****     {
 1276              		.loc 1 602 5 is_stmt 1 view .LVU371
 602:Drivers/STM32F4xx_HAL_Driver/Src/stm32f4xx_hal_rcc.c ****     {
 1277              		.loc 1 602 7 is_stmt 0 view .LVU372
 1278 0030 13F0040F 		tst	r3, #4
 1279 0034 04D0     		beq	.L119
 604:Drivers/STM32F4xx_HAL_Driver/Src/stm32f4xx_hal_rcc.c ****     }
 1280              		.loc 1 604 7 is_stmt 1 view .LVU373
 1281 0036 464A     		ldr	r2, .L143+4
 1282 0038 9368     		ldr	r3, [r2, #8]
 1283 003a 43F4E053 		orr	r3, r3, #7168
 1284 003e 9360     		str	r3, [r2, #8]
 1285              	.L119:
 607:Drivers/STM32F4xx_HAL_Driver/Src/stm32f4xx_hal_rcc.c ****     {
 1286              		.loc 1 607 5 view .LVU374
 607:Drivers/STM32F4xx_HAL_Driver/Src/stm32f4xx_hal_rcc.c ****     {
 1287              		.loc 1 607 27 is_stmt 0 view .LVU375
 1288 0040 2368     		ldr	r3, [r4]
 607:Drivers/STM32F4xx_HAL_Driver/Src/stm32f4xx_hal_rcc.c ****     {
 1289              		.loc 1 607 7 view .LVU376
 1290 0042 13F0080F 		tst	r3, #8
 1291 0046 04D0     		beq	.L120
 609:Drivers/STM32F4xx_HAL_Driver/Src/stm32f4xx_hal_rcc.c ****     }
 1292              		.loc 1 609 7 is_stmt 1 view .LVU377
 1293 0048 414A     		ldr	r2, .L143+4
 1294 004a 9368     		ldr	r3, [r2, #8]
 1295 004c 43F46043 		orr	r3, r3, #57344
ARM GAS  C:\Users\ncer\AppData\Local\Temp\ccYOzh7d.s 			page 42


 1296 0050 9360     		str	r3, [r2, #8]
 1297              	.L120:
 612:Drivers/STM32F4xx_HAL_Driver/Src/stm32f4xx_hal_rcc.c ****     MODIFY_REG(RCC->CFGR, RCC_CFGR_HPRE, RCC_ClkInitStruct->AHBCLKDivider);
 1298              		.loc 1 612 5 view .LVU378
 613:Drivers/STM32F4xx_HAL_Driver/Src/stm32f4xx_hal_rcc.c ****   }
 1299              		.loc 1 613 5 view .LVU379
 1300 0052 3F4A     		ldr	r2, .L143+4
 1301 0054 9368     		ldr	r3, [r2, #8]
 1302 0056 23F0F003 		bic	r3, r3, #240
 1303 005a A068     		ldr	r0, [r4, #8]
 1304              	.LVL81:
 613:Drivers/STM32F4xx_HAL_Driver/Src/stm32f4xx_hal_rcc.c ****   }
 1305              		.loc 1 613 5 is_stmt 0 view .LVU380
 1306 005c 0343     		orrs	r3, r3, r0
 1307 005e 9360     		str	r3, [r2, #8]
 1308              	.L118:
 613:Drivers/STM32F4xx_HAL_Driver/Src/stm32f4xx_hal_rcc.c ****   }
 1309              		.loc 1 613 5 view .LVU381
 1310 0060 0D46     		mov	r5, r1
 617:Drivers/STM32F4xx_HAL_Driver/Src/stm32f4xx_hal_rcc.c ****   {
 1311              		.loc 1 617 3 is_stmt 1 view .LVU382
 617:Drivers/STM32F4xx_HAL_Driver/Src/stm32f4xx_hal_rcc.c ****   {
 1312              		.loc 1 617 25 is_stmt 0 view .LVU383
 1313 0062 2368     		ldr	r3, [r4]
 617:Drivers/STM32F4xx_HAL_Driver/Src/stm32f4xx_hal_rcc.c ****   {
 1314              		.loc 1 617 5 view .LVU384
 1315 0064 13F0010F 		tst	r3, #1
 1316 0068 32D0     		beq	.L121
 619:Drivers/STM32F4xx_HAL_Driver/Src/stm32f4xx_hal_rcc.c **** 
 1317              		.loc 1 619 5 is_stmt 1 view .LVU385
 622:Drivers/STM32F4xx_HAL_Driver/Src/stm32f4xx_hal_rcc.c ****     {
 1318              		.loc 1 622 5 view .LVU386
 622:Drivers/STM32F4xx_HAL_Driver/Src/stm32f4xx_hal_rcc.c ****     {
 1319              		.loc 1 622 25 is_stmt 0 view .LVU387
 1320 006a 6368     		ldr	r3, [r4, #4]
 622:Drivers/STM32F4xx_HAL_Driver/Src/stm32f4xx_hal_rcc.c ****     {
 1321              		.loc 1 622 7 view .LVU388
 1322 006c 012B     		cmp	r3, #1
 1323 006e 21D0     		beq	.L141
 631:Drivers/STM32F4xx_HAL_Driver/Src/stm32f4xx_hal_rcc.c ****             (RCC_ClkInitStruct->SYSCLKSource == RCC_SYSCLKSOURCE_PLLRCLK))
 1324              		.loc 1 631 10 is_stmt 1 view .LVU389
 631:Drivers/STM32F4xx_HAL_Driver/Src/stm32f4xx_hal_rcc.c ****             (RCC_ClkInitStruct->SYSCLKSource == RCC_SYSCLKSOURCE_PLLRCLK))
 1325              		.loc 1 631 76 is_stmt 0 view .LVU390
 1326 0070 9A1E     		subs	r2, r3, #2
 631:Drivers/STM32F4xx_HAL_Driver/Src/stm32f4xx_hal_rcc.c ****             (RCC_ClkInitStruct->SYSCLKSource == RCC_SYSCLKSOURCE_PLLRCLK))
 1327              		.loc 1 631 12 view .LVU391
 1328 0072 012A     		cmp	r2, #1
 1329 0074 25D9     		bls	.L142
 644:Drivers/STM32F4xx_HAL_Driver/Src/stm32f4xx_hal_rcc.c ****       {
 1330              		.loc 1 644 7 is_stmt 1 view .LVU392
 644:Drivers/STM32F4xx_HAL_Driver/Src/stm32f4xx_hal_rcc.c ****       {
 1331              		.loc 1 644 10 is_stmt 0 view .LVU393
 1332 0076 364A     		ldr	r2, .L143+4
 1333 0078 1268     		ldr	r2, [r2]
 644:Drivers/STM32F4xx_HAL_Driver/Src/stm32f4xx_hal_rcc.c ****       {
 1334              		.loc 1 644 9 view .LVU394
 1335 007a 12F0020F 		tst	r2, #2
ARM GAS  C:\Users\ncer\AppData\Local\Temp\ccYOzh7d.s 			page 43


 1336 007e 60D0     		beq	.L134
 1337              	.L123:
 650:Drivers/STM32F4xx_HAL_Driver/Src/stm32f4xx_hal_rcc.c **** 
 1338              		.loc 1 650 5 is_stmt 1 view .LVU395
 1339 0080 3349     		ldr	r1, .L143+4
 1340              	.LVL82:
 650:Drivers/STM32F4xx_HAL_Driver/Src/stm32f4xx_hal_rcc.c **** 
 1341              		.loc 1 650 5 is_stmt 0 view .LVU396
 1342 0082 8A68     		ldr	r2, [r1, #8]
 1343 0084 22F00302 		bic	r2, r2, #3
 1344 0088 1343     		orrs	r3, r3, r2
 1345 008a 8B60     		str	r3, [r1, #8]
 653:Drivers/STM32F4xx_HAL_Driver/Src/stm32f4xx_hal_rcc.c **** 
 1346              		.loc 1 653 5 is_stmt 1 view .LVU397
 653:Drivers/STM32F4xx_HAL_Driver/Src/stm32f4xx_hal_rcc.c **** 
 1347              		.loc 1 653 17 is_stmt 0 view .LVU398
 1348 008c FFF7FEFF 		bl	HAL_GetTick
 1349              	.LVL83:
 1350 0090 0646     		mov	r6, r0
 1351              	.LVL84:
 655:Drivers/STM32F4xx_HAL_Driver/Src/stm32f4xx_hal_rcc.c ****     {
 1352              		.loc 1 655 5 is_stmt 1 view .LVU399
 1353              	.L125:
 655:Drivers/STM32F4xx_HAL_Driver/Src/stm32f4xx_hal_rcc.c ****     {
 1354              		.loc 1 655 12 is_stmt 0 view .LVU400
 1355 0092 2F4B     		ldr	r3, .L143+4
 1356 0094 9B68     		ldr	r3, [r3, #8]
 1357 0096 03F00C03 		and	r3, r3, #12
 655:Drivers/STM32F4xx_HAL_Driver/Src/stm32f4xx_hal_rcc.c ****     {
 1358              		.loc 1 655 63 view .LVU401
 1359 009a 6268     		ldr	r2, [r4, #4]
 655:Drivers/STM32F4xx_HAL_Driver/Src/stm32f4xx_hal_rcc.c ****     {
 1360              		.loc 1 655 11 view .LVU402
 1361 009c B3EB820F 		cmp	r3, r2, lsl #2
 1362 00a0 16D0     		beq	.L121
 657:Drivers/STM32F4xx_HAL_Driver/Src/stm32f4xx_hal_rcc.c ****       {
 1363              		.loc 1 657 7 is_stmt 1 view .LVU403
 657:Drivers/STM32F4xx_HAL_Driver/Src/stm32f4xx_hal_rcc.c ****       {
 1364              		.loc 1 657 12 is_stmt 0 view .LVU404
 1365 00a2 FFF7FEFF 		bl	HAL_GetTick
 1366              	.LVL85:
 657:Drivers/STM32F4xx_HAL_Driver/Src/stm32f4xx_hal_rcc.c ****       {
 1367              		.loc 1 657 26 view .LVU405
 1368 00a6 801B     		subs	r0, r0, r6
 657:Drivers/STM32F4xx_HAL_Driver/Src/stm32f4xx_hal_rcc.c ****       {
 1369              		.loc 1 657 10 view .LVU406
 1370 00a8 41F28833 		movw	r3, #5000
 1371 00ac 9842     		cmp	r0, r3
 1372 00ae F0D9     		bls	.L125
 659:Drivers/STM32F4xx_HAL_Driver/Src/stm32f4xx_hal_rcc.c ****       }
 1373              		.loc 1 659 16 view .LVU407
 1374 00b0 0320     		movs	r0, #3
 1375 00b2 41E0     		b	.L116
 1376              	.LVL86:
 1377              	.L141:
 625:Drivers/STM32F4xx_HAL_Driver/Src/stm32f4xx_hal_rcc.c ****       {
 1378              		.loc 1 625 7 is_stmt 1 view .LVU408
ARM GAS  C:\Users\ncer\AppData\Local\Temp\ccYOzh7d.s 			page 44


 625:Drivers/STM32F4xx_HAL_Driver/Src/stm32f4xx_hal_rcc.c ****       {
 1379              		.loc 1 625 10 is_stmt 0 view .LVU409
 1380 00b4 264A     		ldr	r2, .L143+4
 1381 00b6 1268     		ldr	r2, [r2]
 625:Drivers/STM32F4xx_HAL_Driver/Src/stm32f4xx_hal_rcc.c ****       {
 1382              		.loc 1 625 9 view .LVU410
 1383 00b8 12F4003F 		tst	r2, #131072
 1384 00bc E0D1     		bne	.L123
 627:Drivers/STM32F4xx_HAL_Driver/Src/stm32f4xx_hal_rcc.c ****       }
 1385              		.loc 1 627 16 view .LVU411
 1386 00be 0120     		movs	r0, #1
 1387 00c0 3AE0     		b	.L116
 1388              	.L142:
 635:Drivers/STM32F4xx_HAL_Driver/Src/stm32f4xx_hal_rcc.c ****       {
 1389              		.loc 1 635 7 is_stmt 1 view .LVU412
 635:Drivers/STM32F4xx_HAL_Driver/Src/stm32f4xx_hal_rcc.c ****       {
 1390              		.loc 1 635 10 is_stmt 0 view .LVU413
 1391 00c2 234A     		ldr	r2, .L143+4
 1392 00c4 1268     		ldr	r2, [r2]
 635:Drivers/STM32F4xx_HAL_Driver/Src/stm32f4xx_hal_rcc.c ****       {
 1393              		.loc 1 635 9 view .LVU414
 1394 00c6 12F0007F 		tst	r2, #33554432
 1395 00ca D9D1     		bne	.L123
 637:Drivers/STM32F4xx_HAL_Driver/Src/stm32f4xx_hal_rcc.c ****       }
 1396              		.loc 1 637 16 view .LVU415
 1397 00cc 0120     		movs	r0, #1
 1398 00ce 33E0     		b	.L116
 1399              	.LVL87:
 1400              	.L121:
 665:Drivers/STM32F4xx_HAL_Driver/Src/stm32f4xx_hal_rcc.c ****   {
 1401              		.loc 1 665 3 is_stmt 1 view .LVU416
 665:Drivers/STM32F4xx_HAL_Driver/Src/stm32f4xx_hal_rcc.c ****   {
 1402              		.loc 1 665 17 is_stmt 0 view .LVU417
 1403 00d0 1E4B     		ldr	r3, .L143
 1404 00d2 1B68     		ldr	r3, [r3]
 1405 00d4 03F00F03 		and	r3, r3, #15
 665:Drivers/STM32F4xx_HAL_Driver/Src/stm32f4xx_hal_rcc.c ****   {
 1406              		.loc 1 665 5 view .LVU418
 1407 00d8 AB42     		cmp	r3, r5
 1408 00da 07D9     		bls	.L127
 668:Drivers/STM32F4xx_HAL_Driver/Src/stm32f4xx_hal_rcc.c **** 
 1409              		.loc 1 668 5 is_stmt 1 view .LVU419
 1410 00dc EAB2     		uxtb	r2, r5
 1411 00de 1B4B     		ldr	r3, .L143
 1412 00e0 1A70     		strb	r2, [r3]
 672:Drivers/STM32F4xx_HAL_Driver/Src/stm32f4xx_hal_rcc.c ****     {
 1413              		.loc 1 672 5 view .LVU420
 672:Drivers/STM32F4xx_HAL_Driver/Src/stm32f4xx_hal_rcc.c ****     {
 1414              		.loc 1 672 8 is_stmt 0 view .LVU421
 1415 00e2 1B68     		ldr	r3, [r3]
 1416 00e4 03F00F03 		and	r3, r3, #15
 672:Drivers/STM32F4xx_HAL_Driver/Src/stm32f4xx_hal_rcc.c ****     {
 1417              		.loc 1 672 7 view .LVU422
 1418 00e8 AB42     		cmp	r3, r5
 1419 00ea 2CD1     		bne	.L136
 1420              	.L127:
 679:Drivers/STM32F4xx_HAL_Driver/Src/stm32f4xx_hal_rcc.c ****   {
ARM GAS  C:\Users\ncer\AppData\Local\Temp\ccYOzh7d.s 			page 45


 1421              		.loc 1 679 3 is_stmt 1 view .LVU423
 679:Drivers/STM32F4xx_HAL_Driver/Src/stm32f4xx_hal_rcc.c ****   {
 1422              		.loc 1 679 25 is_stmt 0 view .LVU424
 1423 00ec 2368     		ldr	r3, [r4]
 679:Drivers/STM32F4xx_HAL_Driver/Src/stm32f4xx_hal_rcc.c ****   {
 1424              		.loc 1 679 5 view .LVU425
 1425 00ee 13F0040F 		tst	r3, #4
 1426 00f2 06D0     		beq	.L128
 681:Drivers/STM32F4xx_HAL_Driver/Src/stm32f4xx_hal_rcc.c ****     MODIFY_REG(RCC->CFGR, RCC_CFGR_PPRE1, RCC_ClkInitStruct->APB1CLKDivider);
 1427              		.loc 1 681 5 is_stmt 1 view .LVU426
 682:Drivers/STM32F4xx_HAL_Driver/Src/stm32f4xx_hal_rcc.c ****   }
 1428              		.loc 1 682 5 view .LVU427
 1429 00f4 164A     		ldr	r2, .L143+4
 1430 00f6 9368     		ldr	r3, [r2, #8]
 1431 00f8 23F4E053 		bic	r3, r3, #7168
 1432 00fc E168     		ldr	r1, [r4, #12]
 1433 00fe 0B43     		orrs	r3, r3, r1
 1434 0100 9360     		str	r3, [r2, #8]
 1435              	.L128:
 686:Drivers/STM32F4xx_HAL_Driver/Src/stm32f4xx_hal_rcc.c ****   {
 1436              		.loc 1 686 3 view .LVU428
 686:Drivers/STM32F4xx_HAL_Driver/Src/stm32f4xx_hal_rcc.c ****   {
 1437              		.loc 1 686 25 is_stmt 0 view .LVU429
 1438 0102 2368     		ldr	r3, [r4]
 686:Drivers/STM32F4xx_HAL_Driver/Src/stm32f4xx_hal_rcc.c ****   {
 1439              		.loc 1 686 5 view .LVU430
 1440 0104 13F0080F 		tst	r3, #8
 1441 0108 07D0     		beq	.L129
 688:Drivers/STM32F4xx_HAL_Driver/Src/stm32f4xx_hal_rcc.c ****     MODIFY_REG(RCC->CFGR, RCC_CFGR_PPRE2, ((RCC_ClkInitStruct->APB2CLKDivider) << 3U));
 1442              		.loc 1 688 5 is_stmt 1 view .LVU431
 689:Drivers/STM32F4xx_HAL_Driver/Src/stm32f4xx_hal_rcc.c ****   }
 1443              		.loc 1 689 5 view .LVU432
 1444 010a 114A     		ldr	r2, .L143+4
 1445 010c 9368     		ldr	r3, [r2, #8]
 1446 010e 23F46043 		bic	r3, r3, #57344
 1447 0112 2169     		ldr	r1, [r4, #16]
 1448 0114 43EAC103 		orr	r3, r3, r1, lsl #3
 1449 0118 9360     		str	r3, [r2, #8]
 1450              	.L129:
 693:Drivers/STM32F4xx_HAL_Driver/Src/stm32f4xx_hal_rcc.c **** 
 1451              		.loc 1 693 3 view .LVU433
 693:Drivers/STM32F4xx_HAL_Driver/Src/stm32f4xx_hal_rcc.c **** 
 1452              		.loc 1 693 21 is_stmt 0 view .LVU434
 1453 011a FFF7FEFF 		bl	HAL_RCC_GetSysClockFreq
 1454              	.LVL88:
 693:Drivers/STM32F4xx_HAL_Driver/Src/stm32f4xx_hal_rcc.c **** 
 1455              		.loc 1 693 68 view .LVU435
 1456 011e 0C4B     		ldr	r3, .L143+4
 1457 0120 9B68     		ldr	r3, [r3, #8]
 693:Drivers/STM32F4xx_HAL_Driver/Src/stm32f4xx_hal_rcc.c **** 
 1458              		.loc 1 693 91 view .LVU436
 1459 0122 C3F30313 		ubfx	r3, r3, #4, #4
 693:Drivers/STM32F4xx_HAL_Driver/Src/stm32f4xx_hal_rcc.c **** 
 1460              		.loc 1 693 63 view .LVU437
 1461 0126 0B4A     		ldr	r2, .L143+8
 1462 0128 D35C     		ldrb	r3, [r2, r3]	@ zero_extendqisi2
 693:Drivers/STM32F4xx_HAL_Driver/Src/stm32f4xx_hal_rcc.c **** 
ARM GAS  C:\Users\ncer\AppData\Local\Temp\ccYOzh7d.s 			page 46


 1463              		.loc 1 693 47 view .LVU438
 1464 012a D840     		lsrs	r0, r0, r3
 693:Drivers/STM32F4xx_HAL_Driver/Src/stm32f4xx_hal_rcc.c **** 
 1465              		.loc 1 693 19 view .LVU439
 1466 012c 0A4B     		ldr	r3, .L143+12
 1467 012e 1860     		str	r0, [r3]
 696:Drivers/STM32F4xx_HAL_Driver/Src/stm32f4xx_hal_rcc.c **** 
 1468              		.loc 1 696 3 is_stmt 1 view .LVU440
 1469 0130 0020     		movs	r0, #0
 1470 0132 FFF7FEFF 		bl	HAL_InitTick
 1471              	.LVL89:
 698:Drivers/STM32F4xx_HAL_Driver/Src/stm32f4xx_hal_rcc.c **** }
 1472              		.loc 1 698 3 view .LVU441
 698:Drivers/STM32F4xx_HAL_Driver/Src/stm32f4xx_hal_rcc.c **** }
 1473              		.loc 1 698 10 is_stmt 0 view .LVU442
 1474 0136 0020     		movs	r0, #0
 1475              	.LVL90:
 1476              	.L116:
 699:Drivers/STM32F4xx_HAL_Driver/Src/stm32f4xx_hal_rcc.c **** 
 1477              		.loc 1 699 1 view .LVU443
 1478 0138 70BD     		pop	{r4, r5, r6, pc}
 1479              	.LVL91:
 1480              	.L130:
 1481              	.LCFI13:
 1482              		.cfi_def_cfa_offset 0
 1483              		.cfi_restore 4
 1484              		.cfi_restore 5
 1485              		.cfi_restore 6
 1486              		.cfi_restore 14
 572:Drivers/STM32F4xx_HAL_Driver/Src/stm32f4xx_hal_rcc.c ****   }
 1487              		.loc 1 572 12 view .LVU444
 1488 013a 0120     		movs	r0, #1
 1489              	.LVL92:
 699:Drivers/STM32F4xx_HAL_Driver/Src/stm32f4xx_hal_rcc.c **** 
 1490              		.loc 1 699 1 view .LVU445
 1491 013c 7047     		bx	lr
 1492              	.LVL93:
 1493              	.L131:
 1494              	.LCFI14:
 1495              		.cfi_def_cfa_offset 16
 1496              		.cfi_offset 4, -16
 1497              		.cfi_offset 5, -12
 1498              		.cfi_offset 6, -8
 1499              		.cfi_offset 14, -4
 593:Drivers/STM32F4xx_HAL_Driver/Src/stm32f4xx_hal_rcc.c ****     }
 1500              		.loc 1 593 14 view .LVU446
 1501 013e 0120     		movs	r0, #1
 1502              	.LVL94:
 593:Drivers/STM32F4xx_HAL_Driver/Src/stm32f4xx_hal_rcc.c ****     }
 1503              		.loc 1 593 14 view .LVU447
 1504 0140 FAE7     		b	.L116
 1505              	.L134:
 646:Drivers/STM32F4xx_HAL_Driver/Src/stm32f4xx_hal_rcc.c ****       }
 1506              		.loc 1 646 16 view .LVU448
 1507 0142 0120     		movs	r0, #1
 1508 0144 F8E7     		b	.L116
 1509              	.LVL95:
ARM GAS  C:\Users\ncer\AppData\Local\Temp\ccYOzh7d.s 			page 47


 1510              	.L136:
 674:Drivers/STM32F4xx_HAL_Driver/Src/stm32f4xx_hal_rcc.c ****     }
 1511              		.loc 1 674 14 view .LVU449
 1512 0146 0120     		movs	r0, #1
 1513 0148 F6E7     		b	.L116
 1514              	.L144:
 1515 014a 00BF     		.align	2
 1516              	.L143:
 1517 014c 003C0240 		.word	1073888256
 1518 0150 00380240 		.word	1073887232
 1519 0154 00000000 		.word	AHBPrescTable
 1520 0158 00000000 		.word	SystemCoreClock
 1521              		.cfi_endproc
 1522              	.LFE132:
 1524              		.section	.text.HAL_RCC_GetHCLKFreq,"ax",%progbits
 1525              		.align	1
 1526              		.global	HAL_RCC_GetHCLKFreq
 1527              		.syntax unified
 1528              		.thumb
 1529              		.thumb_func
 1530              		.fpu fpv4-sp-d16
 1532              	HAL_RCC_GetHCLKFreq:
 1533              	.LFB137:
 905:Drivers/STM32F4xx_HAL_Driver/Src/stm32f4xx_hal_rcc.c **** 
 906:Drivers/STM32F4xx_HAL_Driver/Src/stm32f4xx_hal_rcc.c **** /**
 907:Drivers/STM32F4xx_HAL_Driver/Src/stm32f4xx_hal_rcc.c ****   * @brief  Returns the HCLK frequency
 908:Drivers/STM32F4xx_HAL_Driver/Src/stm32f4xx_hal_rcc.c ****   * @note   Each time HCLK changes, this function must be called to update the
 909:Drivers/STM32F4xx_HAL_Driver/Src/stm32f4xx_hal_rcc.c ****   *         right HCLK value. Otherwise, any configuration based on this function will be incorrect
 910:Drivers/STM32F4xx_HAL_Driver/Src/stm32f4xx_hal_rcc.c ****   *
 911:Drivers/STM32F4xx_HAL_Driver/Src/stm32f4xx_hal_rcc.c ****   * @note   The SystemCoreClock CMSIS variable is used to store System Clock Frequency
 912:Drivers/STM32F4xx_HAL_Driver/Src/stm32f4xx_hal_rcc.c ****   *         and updated within this function
 913:Drivers/STM32F4xx_HAL_Driver/Src/stm32f4xx_hal_rcc.c ****   * @retval HCLK frequency
 914:Drivers/STM32F4xx_HAL_Driver/Src/stm32f4xx_hal_rcc.c ****   */
 915:Drivers/STM32F4xx_HAL_Driver/Src/stm32f4xx_hal_rcc.c **** uint32_t HAL_RCC_GetHCLKFreq(void)
 916:Drivers/STM32F4xx_HAL_Driver/Src/stm32f4xx_hal_rcc.c **** {
 1534              		.loc 1 916 1 is_stmt 1 view -0
 1535              		.cfi_startproc
 1536              		@ args = 0, pretend = 0, frame = 0
 1537              		@ frame_needed = 0, uses_anonymous_args = 0
 1538              		@ link register save eliminated.
 917:Drivers/STM32F4xx_HAL_Driver/Src/stm32f4xx_hal_rcc.c ****   return SystemCoreClock;
 1539              		.loc 1 917 3 view .LVU451
 918:Drivers/STM32F4xx_HAL_Driver/Src/stm32f4xx_hal_rcc.c **** }
 1540              		.loc 1 918 1 is_stmt 0 view .LVU452
 1541 0000 014B     		ldr	r3, .L146
 1542 0002 1868     		ldr	r0, [r3]
 1543 0004 7047     		bx	lr
 1544              	.L147:
 1545 0006 00BF     		.align	2
 1546              	.L146:
 1547 0008 00000000 		.word	SystemCoreClock
 1548              		.cfi_endproc
 1549              	.LFE137:
 1551              		.section	.text.HAL_RCC_GetPCLK1Freq,"ax",%progbits
 1552              		.align	1
 1553              		.global	HAL_RCC_GetPCLK1Freq
 1554              		.syntax unified
ARM GAS  C:\Users\ncer\AppData\Local\Temp\ccYOzh7d.s 			page 48


 1555              		.thumb
 1556              		.thumb_func
 1557              		.fpu fpv4-sp-d16
 1559              	HAL_RCC_GetPCLK1Freq:
 1560              	.LFB138:
 919:Drivers/STM32F4xx_HAL_Driver/Src/stm32f4xx_hal_rcc.c **** 
 920:Drivers/STM32F4xx_HAL_Driver/Src/stm32f4xx_hal_rcc.c **** /**
 921:Drivers/STM32F4xx_HAL_Driver/Src/stm32f4xx_hal_rcc.c ****   * @brief  Returns the PCLK1 frequency
 922:Drivers/STM32F4xx_HAL_Driver/Src/stm32f4xx_hal_rcc.c ****   * @note   Each time PCLK1 changes, this function must be called to update the
 923:Drivers/STM32F4xx_HAL_Driver/Src/stm32f4xx_hal_rcc.c ****   *         right PCLK1 value. Otherwise, any configuration based on this function will be incorrec
 924:Drivers/STM32F4xx_HAL_Driver/Src/stm32f4xx_hal_rcc.c ****   * @retval PCLK1 frequency
 925:Drivers/STM32F4xx_HAL_Driver/Src/stm32f4xx_hal_rcc.c ****   */
 926:Drivers/STM32F4xx_HAL_Driver/Src/stm32f4xx_hal_rcc.c **** uint32_t HAL_RCC_GetPCLK1Freq(void)
 927:Drivers/STM32F4xx_HAL_Driver/Src/stm32f4xx_hal_rcc.c **** {
 1561              		.loc 1 927 1 is_stmt 1 view -0
 1562              		.cfi_startproc
 1563              		@ args = 0, pretend = 0, frame = 0
 1564              		@ frame_needed = 0, uses_anonymous_args = 0
 1565 0000 08B5     		push	{r3, lr}
 1566              	.LCFI15:
 1567              		.cfi_def_cfa_offset 8
 1568              		.cfi_offset 3, -8
 1569              		.cfi_offset 14, -4
 928:Drivers/STM32F4xx_HAL_Driver/Src/stm32f4xx_hal_rcc.c ****   /* Get HCLK source and Compute PCLK1 frequency ---------------------------*/
 929:Drivers/STM32F4xx_HAL_Driver/Src/stm32f4xx_hal_rcc.c ****   return (HAL_RCC_GetHCLKFreq() >> APBPrescTable[(RCC->CFGR & RCC_CFGR_PPRE1)>> RCC_CFGR_PPRE1_Pos]
 1570              		.loc 1 929 3 view .LVU454
 1571              		.loc 1 929 11 is_stmt 0 view .LVU455
 1572 0002 FFF7FEFF 		bl	HAL_RCC_GetHCLKFreq
 1573              	.LVL96:
 1574              		.loc 1 929 54 view .LVU456
 1575 0006 044B     		ldr	r3, .L150
 1576 0008 9B68     		ldr	r3, [r3, #8]
 1577              		.loc 1 929 78 view .LVU457
 1578 000a C3F38223 		ubfx	r3, r3, #10, #3
 1579              		.loc 1 929 49 view .LVU458
 1580 000e 034A     		ldr	r2, .L150+4
 1581 0010 D35C     		ldrb	r3, [r2, r3]	@ zero_extendqisi2
 930:Drivers/STM32F4xx_HAL_Driver/Src/stm32f4xx_hal_rcc.c **** }
 1582              		.loc 1 930 1 view .LVU459
 1583 0012 D840     		lsrs	r0, r0, r3
 1584 0014 08BD     		pop	{r3, pc}
 1585              	.L151:
 1586 0016 00BF     		.align	2
 1587              	.L150:
 1588 0018 00380240 		.word	1073887232
 1589 001c 00000000 		.word	APBPrescTable
 1590              		.cfi_endproc
 1591              	.LFE138:
 1593              		.section	.text.HAL_RCC_GetPCLK2Freq,"ax",%progbits
 1594              		.align	1
 1595              		.global	HAL_RCC_GetPCLK2Freq
 1596              		.syntax unified
 1597              		.thumb
 1598              		.thumb_func
 1599              		.fpu fpv4-sp-d16
 1601              	HAL_RCC_GetPCLK2Freq:
 1602              	.LFB139:
ARM GAS  C:\Users\ncer\AppData\Local\Temp\ccYOzh7d.s 			page 49


 931:Drivers/STM32F4xx_HAL_Driver/Src/stm32f4xx_hal_rcc.c **** 
 932:Drivers/STM32F4xx_HAL_Driver/Src/stm32f4xx_hal_rcc.c **** /**
 933:Drivers/STM32F4xx_HAL_Driver/Src/stm32f4xx_hal_rcc.c ****   * @brief  Returns the PCLK2 frequency
 934:Drivers/STM32F4xx_HAL_Driver/Src/stm32f4xx_hal_rcc.c ****   * @note   Each time PCLK2 changes, this function must be called to update the
 935:Drivers/STM32F4xx_HAL_Driver/Src/stm32f4xx_hal_rcc.c ****   *         right PCLK2 value. Otherwise, any configuration based on this function will be incorrec
 936:Drivers/STM32F4xx_HAL_Driver/Src/stm32f4xx_hal_rcc.c ****   * @retval PCLK2 frequency
 937:Drivers/STM32F4xx_HAL_Driver/Src/stm32f4xx_hal_rcc.c ****   */
 938:Drivers/STM32F4xx_HAL_Driver/Src/stm32f4xx_hal_rcc.c **** uint32_t HAL_RCC_GetPCLK2Freq(void)
 939:Drivers/STM32F4xx_HAL_Driver/Src/stm32f4xx_hal_rcc.c **** {
 1603              		.loc 1 939 1 is_stmt 1 view -0
 1604              		.cfi_startproc
 1605              		@ args = 0, pretend = 0, frame = 0
 1606              		@ frame_needed = 0, uses_anonymous_args = 0
 1607 0000 08B5     		push	{r3, lr}
 1608              	.LCFI16:
 1609              		.cfi_def_cfa_offset 8
 1610              		.cfi_offset 3, -8
 1611              		.cfi_offset 14, -4
 940:Drivers/STM32F4xx_HAL_Driver/Src/stm32f4xx_hal_rcc.c ****   /* Get HCLK source and Compute PCLK2 frequency ---------------------------*/
 941:Drivers/STM32F4xx_HAL_Driver/Src/stm32f4xx_hal_rcc.c ****   return (HAL_RCC_GetHCLKFreq()>> APBPrescTable[(RCC->CFGR & RCC_CFGR_PPRE2)>> RCC_CFGR_PPRE2_Pos])
 1612              		.loc 1 941 3 view .LVU461
 1613              		.loc 1 941 11 is_stmt 0 view .LVU462
 1614 0002 FFF7FEFF 		bl	HAL_RCC_GetHCLKFreq
 1615              	.LVL97:
 1616              		.loc 1 941 53 view .LVU463
 1617 0006 044B     		ldr	r3, .L154
 1618 0008 9B68     		ldr	r3, [r3, #8]
 1619              		.loc 1 941 77 view .LVU464
 1620 000a C3F34233 		ubfx	r3, r3, #13, #3
 1621              		.loc 1 941 48 view .LVU465
 1622 000e 034A     		ldr	r2, .L154+4
 1623 0010 D35C     		ldrb	r3, [r2, r3]	@ zero_extendqisi2
 942:Drivers/STM32F4xx_HAL_Driver/Src/stm32f4xx_hal_rcc.c **** }
 1624              		.loc 1 942 1 view .LVU466
 1625 0012 D840     		lsrs	r0, r0, r3
 1626 0014 08BD     		pop	{r3, pc}
 1627              	.L155:
 1628 0016 00BF     		.align	2
 1629              	.L154:
 1630 0018 00380240 		.word	1073887232
 1631 001c 00000000 		.word	APBPrescTable
 1632              		.cfi_endproc
 1633              	.LFE139:
 1635              		.section	.text.HAL_RCC_GetOscConfig,"ax",%progbits
 1636              		.align	1
 1637              		.weak	HAL_RCC_GetOscConfig
 1638              		.syntax unified
 1639              		.thumb
 1640              		.thumb_func
 1641              		.fpu fpv4-sp-d16
 1643              	HAL_RCC_GetOscConfig:
 1644              	.LVL98:
 1645              	.LFB140:
 943:Drivers/STM32F4xx_HAL_Driver/Src/stm32f4xx_hal_rcc.c **** 
 944:Drivers/STM32F4xx_HAL_Driver/Src/stm32f4xx_hal_rcc.c **** /**
 945:Drivers/STM32F4xx_HAL_Driver/Src/stm32f4xx_hal_rcc.c ****   * @brief  Configures the RCC_OscInitStruct according to the internal
 946:Drivers/STM32F4xx_HAL_Driver/Src/stm32f4xx_hal_rcc.c ****   * RCC configuration registers.
ARM GAS  C:\Users\ncer\AppData\Local\Temp\ccYOzh7d.s 			page 50


 947:Drivers/STM32F4xx_HAL_Driver/Src/stm32f4xx_hal_rcc.c ****   * @param  RCC_OscInitStruct pointer to an RCC_OscInitTypeDef structure that
 948:Drivers/STM32F4xx_HAL_Driver/Src/stm32f4xx_hal_rcc.c ****   * will be configured.
 949:Drivers/STM32F4xx_HAL_Driver/Src/stm32f4xx_hal_rcc.c ****   * @retval None
 950:Drivers/STM32F4xx_HAL_Driver/Src/stm32f4xx_hal_rcc.c ****   */
 951:Drivers/STM32F4xx_HAL_Driver/Src/stm32f4xx_hal_rcc.c **** __weak void HAL_RCC_GetOscConfig(RCC_OscInitTypeDef  *RCC_OscInitStruct)
 952:Drivers/STM32F4xx_HAL_Driver/Src/stm32f4xx_hal_rcc.c **** {
 1646              		.loc 1 952 1 is_stmt 1 view -0
 1647              		.cfi_startproc
 1648              		@ args = 0, pretend = 0, frame = 0
 1649              		@ frame_needed = 0, uses_anonymous_args = 0
 1650              		@ link register save eliminated.
 953:Drivers/STM32F4xx_HAL_Driver/Src/stm32f4xx_hal_rcc.c ****   /* Set all possible values for the Oscillator type parameter ---------------*/
 954:Drivers/STM32F4xx_HAL_Driver/Src/stm32f4xx_hal_rcc.c ****   RCC_OscInitStruct->OscillatorType = RCC_OSCILLATORTYPE_HSE | RCC_OSCILLATORTYPE_HSI | RCC_OSCILLA
 1651              		.loc 1 954 3 view .LVU468
 1652              		.loc 1 954 37 is_stmt 0 view .LVU469
 1653 0000 0F23     		movs	r3, #15
 1654 0002 0360     		str	r3, [r0]
 955:Drivers/STM32F4xx_HAL_Driver/Src/stm32f4xx_hal_rcc.c **** 
 956:Drivers/STM32F4xx_HAL_Driver/Src/stm32f4xx_hal_rcc.c ****   /* Get the HSE configuration -----------------------------------------------*/
 957:Drivers/STM32F4xx_HAL_Driver/Src/stm32f4xx_hal_rcc.c ****   if((RCC->CR &RCC_CR_HSEBYP) == RCC_CR_HSEBYP)
 1655              		.loc 1 957 3 is_stmt 1 view .LVU470
 1656              		.loc 1 957 10 is_stmt 0 view .LVU471
 1657 0004 304B     		ldr	r3, .L169
 1658 0006 1B68     		ldr	r3, [r3]
 1659              		.loc 1 957 5 view .LVU472
 1660 0008 13F4802F 		tst	r3, #262144
 1661 000c 3BD0     		beq	.L157
 958:Drivers/STM32F4xx_HAL_Driver/Src/stm32f4xx_hal_rcc.c ****   {
 959:Drivers/STM32F4xx_HAL_Driver/Src/stm32f4xx_hal_rcc.c ****     RCC_OscInitStruct->HSEState = RCC_HSE_BYPASS;
 1662              		.loc 1 959 5 is_stmt 1 view .LVU473
 1663              		.loc 1 959 33 is_stmt 0 view .LVU474
 1664 000e 4FF4A023 		mov	r3, #327680
 1665 0012 4360     		str	r3, [r0, #4]
 1666              	.L158:
 960:Drivers/STM32F4xx_HAL_Driver/Src/stm32f4xx_hal_rcc.c ****   }
 961:Drivers/STM32F4xx_HAL_Driver/Src/stm32f4xx_hal_rcc.c ****   else if((RCC->CR &RCC_CR_HSEON) == RCC_CR_HSEON)
 962:Drivers/STM32F4xx_HAL_Driver/Src/stm32f4xx_hal_rcc.c ****   {
 963:Drivers/STM32F4xx_HAL_Driver/Src/stm32f4xx_hal_rcc.c ****     RCC_OscInitStruct->HSEState = RCC_HSE_ON;
 964:Drivers/STM32F4xx_HAL_Driver/Src/stm32f4xx_hal_rcc.c ****   }
 965:Drivers/STM32F4xx_HAL_Driver/Src/stm32f4xx_hal_rcc.c ****   else
 966:Drivers/STM32F4xx_HAL_Driver/Src/stm32f4xx_hal_rcc.c ****   {
 967:Drivers/STM32F4xx_HAL_Driver/Src/stm32f4xx_hal_rcc.c ****     RCC_OscInitStruct->HSEState = RCC_HSE_OFF;
 968:Drivers/STM32F4xx_HAL_Driver/Src/stm32f4xx_hal_rcc.c ****   }
 969:Drivers/STM32F4xx_HAL_Driver/Src/stm32f4xx_hal_rcc.c **** 
 970:Drivers/STM32F4xx_HAL_Driver/Src/stm32f4xx_hal_rcc.c ****   /* Get the HSI configuration -----------------------------------------------*/
 971:Drivers/STM32F4xx_HAL_Driver/Src/stm32f4xx_hal_rcc.c ****   if((RCC->CR &RCC_CR_HSION) == RCC_CR_HSION)
 1667              		.loc 1 971 3 is_stmt 1 view .LVU475
 1668              		.loc 1 971 10 is_stmt 0 view .LVU476
 1669 0014 2C4B     		ldr	r3, .L169
 1670 0016 1B68     		ldr	r3, [r3]
 1671              		.loc 1 971 5 view .LVU477
 1672 0018 13F0010F 		tst	r3, #1
 1673 001c 3FD0     		beq	.L160
 972:Drivers/STM32F4xx_HAL_Driver/Src/stm32f4xx_hal_rcc.c ****   {
 973:Drivers/STM32F4xx_HAL_Driver/Src/stm32f4xx_hal_rcc.c ****     RCC_OscInitStruct->HSIState = RCC_HSI_ON;
 1674              		.loc 1 973 5 is_stmt 1 view .LVU478
 1675              		.loc 1 973 33 is_stmt 0 view .LVU479
ARM GAS  C:\Users\ncer\AppData\Local\Temp\ccYOzh7d.s 			page 51


 1676 001e 0123     		movs	r3, #1
 1677 0020 C360     		str	r3, [r0, #12]
 1678              	.L161:
 974:Drivers/STM32F4xx_HAL_Driver/Src/stm32f4xx_hal_rcc.c ****   }
 975:Drivers/STM32F4xx_HAL_Driver/Src/stm32f4xx_hal_rcc.c ****   else
 976:Drivers/STM32F4xx_HAL_Driver/Src/stm32f4xx_hal_rcc.c ****   {
 977:Drivers/STM32F4xx_HAL_Driver/Src/stm32f4xx_hal_rcc.c ****     RCC_OscInitStruct->HSIState = RCC_HSI_OFF;
 978:Drivers/STM32F4xx_HAL_Driver/Src/stm32f4xx_hal_rcc.c ****   }
 979:Drivers/STM32F4xx_HAL_Driver/Src/stm32f4xx_hal_rcc.c **** 
 980:Drivers/STM32F4xx_HAL_Driver/Src/stm32f4xx_hal_rcc.c ****   RCC_OscInitStruct->HSICalibrationValue = (uint32_t)((RCC->CR &RCC_CR_HSITRIM) >> RCC_CR_HSITRIM_P
 1679              		.loc 1 980 3 is_stmt 1 view .LVU480
 1680              		.loc 1 980 59 is_stmt 0 view .LVU481
 1681 0022 294A     		ldr	r2, .L169
 1682 0024 1368     		ldr	r3, [r2]
 1683              		.loc 1 980 44 view .LVU482
 1684 0026 C3F3C403 		ubfx	r3, r3, #3, #5
 1685              		.loc 1 980 42 view .LVU483
 1686 002a 0361     		str	r3, [r0, #16]
 981:Drivers/STM32F4xx_HAL_Driver/Src/stm32f4xx_hal_rcc.c **** 
 982:Drivers/STM32F4xx_HAL_Driver/Src/stm32f4xx_hal_rcc.c ****   /* Get the LSE configuration -----------------------------------------------*/
 983:Drivers/STM32F4xx_HAL_Driver/Src/stm32f4xx_hal_rcc.c ****   if((RCC->BDCR &RCC_BDCR_LSEBYP) == RCC_BDCR_LSEBYP)
 1687              		.loc 1 983 3 is_stmt 1 view .LVU484
 1688              		.loc 1 983 10 is_stmt 0 view .LVU485
 1689 002c 136F     		ldr	r3, [r2, #112]
 1690              		.loc 1 983 5 view .LVU486
 1691 002e 13F0040F 		tst	r3, #4
 1692 0032 37D0     		beq	.L162
 984:Drivers/STM32F4xx_HAL_Driver/Src/stm32f4xx_hal_rcc.c ****   {
 985:Drivers/STM32F4xx_HAL_Driver/Src/stm32f4xx_hal_rcc.c ****     RCC_OscInitStruct->LSEState = RCC_LSE_BYPASS;
 1693              		.loc 1 985 5 is_stmt 1 view .LVU487
 1694              		.loc 1 985 33 is_stmt 0 view .LVU488
 1695 0034 0523     		movs	r3, #5
 1696 0036 8360     		str	r3, [r0, #8]
 1697              	.L163:
 986:Drivers/STM32F4xx_HAL_Driver/Src/stm32f4xx_hal_rcc.c ****   }
 987:Drivers/STM32F4xx_HAL_Driver/Src/stm32f4xx_hal_rcc.c ****   else if((RCC->BDCR &RCC_BDCR_LSEON) == RCC_BDCR_LSEON)
 988:Drivers/STM32F4xx_HAL_Driver/Src/stm32f4xx_hal_rcc.c ****   {
 989:Drivers/STM32F4xx_HAL_Driver/Src/stm32f4xx_hal_rcc.c ****     RCC_OscInitStruct->LSEState = RCC_LSE_ON;
 990:Drivers/STM32F4xx_HAL_Driver/Src/stm32f4xx_hal_rcc.c ****   }
 991:Drivers/STM32F4xx_HAL_Driver/Src/stm32f4xx_hal_rcc.c ****   else
 992:Drivers/STM32F4xx_HAL_Driver/Src/stm32f4xx_hal_rcc.c ****   {
 993:Drivers/STM32F4xx_HAL_Driver/Src/stm32f4xx_hal_rcc.c ****     RCC_OscInitStruct->LSEState = RCC_LSE_OFF;
 994:Drivers/STM32F4xx_HAL_Driver/Src/stm32f4xx_hal_rcc.c ****   }
 995:Drivers/STM32F4xx_HAL_Driver/Src/stm32f4xx_hal_rcc.c **** 
 996:Drivers/STM32F4xx_HAL_Driver/Src/stm32f4xx_hal_rcc.c ****   /* Get the LSI configuration -----------------------------------------------*/
 997:Drivers/STM32F4xx_HAL_Driver/Src/stm32f4xx_hal_rcc.c ****   if((RCC->CSR &RCC_CSR_LSION) == RCC_CSR_LSION)
 1698              		.loc 1 997 3 is_stmt 1 view .LVU489
 1699              		.loc 1 997 10 is_stmt 0 view .LVU490
 1700 0038 234B     		ldr	r3, .L169
 1701 003a 5B6F     		ldr	r3, [r3, #116]
 1702              		.loc 1 997 5 view .LVU491
 1703 003c 13F0010F 		tst	r3, #1
 1704 0040 3BD0     		beq	.L165
 998:Drivers/STM32F4xx_HAL_Driver/Src/stm32f4xx_hal_rcc.c ****   {
 999:Drivers/STM32F4xx_HAL_Driver/Src/stm32f4xx_hal_rcc.c ****     RCC_OscInitStruct->LSIState = RCC_LSI_ON;
 1705              		.loc 1 999 5 is_stmt 1 view .LVU492
 1706              		.loc 1 999 33 is_stmt 0 view .LVU493
ARM GAS  C:\Users\ncer\AppData\Local\Temp\ccYOzh7d.s 			page 52


 1707 0042 0123     		movs	r3, #1
 1708 0044 4361     		str	r3, [r0, #20]
 1709              	.L166:
1000:Drivers/STM32F4xx_HAL_Driver/Src/stm32f4xx_hal_rcc.c ****   }
1001:Drivers/STM32F4xx_HAL_Driver/Src/stm32f4xx_hal_rcc.c ****   else
1002:Drivers/STM32F4xx_HAL_Driver/Src/stm32f4xx_hal_rcc.c ****   {
1003:Drivers/STM32F4xx_HAL_Driver/Src/stm32f4xx_hal_rcc.c ****     RCC_OscInitStruct->LSIState = RCC_LSI_OFF;
1004:Drivers/STM32F4xx_HAL_Driver/Src/stm32f4xx_hal_rcc.c ****   }
1005:Drivers/STM32F4xx_HAL_Driver/Src/stm32f4xx_hal_rcc.c **** 
1006:Drivers/STM32F4xx_HAL_Driver/Src/stm32f4xx_hal_rcc.c ****   /* Get the PLL configuration -----------------------------------------------*/
1007:Drivers/STM32F4xx_HAL_Driver/Src/stm32f4xx_hal_rcc.c ****   if((RCC->CR &RCC_CR_PLLON) == RCC_CR_PLLON)
 1710              		.loc 1 1007 3 is_stmt 1 view .LVU494
 1711              		.loc 1 1007 10 is_stmt 0 view .LVU495
 1712 0046 204B     		ldr	r3, .L169
 1713 0048 1B68     		ldr	r3, [r3]
 1714              		.loc 1 1007 5 view .LVU496
 1715 004a 13F0807F 		tst	r3, #16777216
 1716 004e 37D0     		beq	.L167
1008:Drivers/STM32F4xx_HAL_Driver/Src/stm32f4xx_hal_rcc.c ****   {
1009:Drivers/STM32F4xx_HAL_Driver/Src/stm32f4xx_hal_rcc.c ****     RCC_OscInitStruct->PLL.PLLState = RCC_PLL_ON;
 1717              		.loc 1 1009 5 is_stmt 1 view .LVU497
 1718              		.loc 1 1009 37 is_stmt 0 view .LVU498
 1719 0050 0223     		movs	r3, #2
 1720 0052 8361     		str	r3, [r0, #24]
 1721              	.L168:
1010:Drivers/STM32F4xx_HAL_Driver/Src/stm32f4xx_hal_rcc.c ****   }
1011:Drivers/STM32F4xx_HAL_Driver/Src/stm32f4xx_hal_rcc.c ****   else
1012:Drivers/STM32F4xx_HAL_Driver/Src/stm32f4xx_hal_rcc.c ****   {
1013:Drivers/STM32F4xx_HAL_Driver/Src/stm32f4xx_hal_rcc.c ****     RCC_OscInitStruct->PLL.PLLState = RCC_PLL_OFF;
1014:Drivers/STM32F4xx_HAL_Driver/Src/stm32f4xx_hal_rcc.c ****   }
1015:Drivers/STM32F4xx_HAL_Driver/Src/stm32f4xx_hal_rcc.c ****   RCC_OscInitStruct->PLL.PLLSource = (uint32_t)(RCC->PLLCFGR & RCC_PLLCFGR_PLLSRC);
 1722              		.loc 1 1015 3 is_stmt 1 view .LVU499
 1723              		.loc 1 1015 52 is_stmt 0 view .LVU500
 1724 0054 1C4A     		ldr	r2, .L169
 1725 0056 5368     		ldr	r3, [r2, #4]
 1726              		.loc 1 1015 38 view .LVU501
 1727 0058 03F48003 		and	r3, r3, #4194304
 1728              		.loc 1 1015 36 view .LVU502
 1729 005c C361     		str	r3, [r0, #28]
1016:Drivers/STM32F4xx_HAL_Driver/Src/stm32f4xx_hal_rcc.c ****   RCC_OscInitStruct->PLL.PLLM = (uint32_t)(RCC->PLLCFGR & RCC_PLLCFGR_PLLM);
 1730              		.loc 1 1016 3 is_stmt 1 view .LVU503
 1731              		.loc 1 1016 47 is_stmt 0 view .LVU504
 1732 005e 5368     		ldr	r3, [r2, #4]
 1733              		.loc 1 1016 33 view .LVU505
 1734 0060 03F03F03 		and	r3, r3, #63
 1735              		.loc 1 1016 31 view .LVU506
 1736 0064 0362     		str	r3, [r0, #32]
1017:Drivers/STM32F4xx_HAL_Driver/Src/stm32f4xx_hal_rcc.c ****   RCC_OscInitStruct->PLL.PLLN = (uint32_t)((RCC->PLLCFGR & RCC_PLLCFGR_PLLN) >> RCC_PLLCFGR_PLLN_Po
 1737              		.loc 1 1017 3 is_stmt 1 view .LVU507
 1738              		.loc 1 1017 48 is_stmt 0 view .LVU508
 1739 0066 5368     		ldr	r3, [r2, #4]
 1740              		.loc 1 1017 33 view .LVU509
 1741 0068 C3F38813 		ubfx	r3, r3, #6, #9
 1742              		.loc 1 1017 31 view .LVU510
 1743 006c 4362     		str	r3, [r0, #36]
1018:Drivers/STM32F4xx_HAL_Driver/Src/stm32f4xx_hal_rcc.c ****   RCC_OscInitStruct->PLL.PLLP = (uint32_t)((((RCC->PLLCFGR & RCC_PLLCFGR_PLLP) + RCC_PLLCFGR_PLLP_0
 1744              		.loc 1 1018 3 is_stmt 1 view .LVU511
ARM GAS  C:\Users\ncer\AppData\Local\Temp\ccYOzh7d.s 			page 53


 1745              		.loc 1 1018 50 is_stmt 0 view .LVU512
 1746 006e 5368     		ldr	r3, [r2, #4]
 1747              		.loc 1 1018 60 view .LVU513
 1748 0070 03F44033 		and	r3, r3, #196608
 1749              		.loc 1 1018 80 view .LVU514
 1750 0074 03F58033 		add	r3, r3, #65536
 1751              		.loc 1 1018 33 view .LVU515
 1752 0078 DB0B     		lsrs	r3, r3, #15
 1753              		.loc 1 1018 31 view .LVU516
 1754 007a 8362     		str	r3, [r0, #40]
1019:Drivers/STM32F4xx_HAL_Driver/Src/stm32f4xx_hal_rcc.c ****   RCC_OscInitStruct->PLL.PLLQ = (uint32_t)((RCC->PLLCFGR & RCC_PLLCFGR_PLLQ) >> RCC_PLLCFGR_PLLQ_Po
 1755              		.loc 1 1019 3 is_stmt 1 view .LVU517
 1756              		.loc 1 1019 48 is_stmt 0 view .LVU518
 1757 007c 5368     		ldr	r3, [r2, #4]
 1758              		.loc 1 1019 33 view .LVU519
 1759 007e C3F30363 		ubfx	r3, r3, #24, #4
 1760              		.loc 1 1019 31 view .LVU520
 1761 0082 C362     		str	r3, [r0, #44]
1020:Drivers/STM32F4xx_HAL_Driver/Src/stm32f4xx_hal_rcc.c **** }
 1762              		.loc 1 1020 1 view .LVU521
 1763 0084 7047     		bx	lr
 1764              	.L157:
 961:Drivers/STM32F4xx_HAL_Driver/Src/stm32f4xx_hal_rcc.c ****   {
 1765              		.loc 1 961 8 is_stmt 1 view .LVU522
 961:Drivers/STM32F4xx_HAL_Driver/Src/stm32f4xx_hal_rcc.c ****   {
 1766              		.loc 1 961 15 is_stmt 0 view .LVU523
 1767 0086 104B     		ldr	r3, .L169
 1768 0088 1B68     		ldr	r3, [r3]
 961:Drivers/STM32F4xx_HAL_Driver/Src/stm32f4xx_hal_rcc.c ****   {
 1769              		.loc 1 961 10 view .LVU524
 1770 008a 13F4803F 		tst	r3, #65536
 1771 008e 03D0     		beq	.L159
 963:Drivers/STM32F4xx_HAL_Driver/Src/stm32f4xx_hal_rcc.c ****   }
 1772              		.loc 1 963 5 is_stmt 1 view .LVU525
 963:Drivers/STM32F4xx_HAL_Driver/Src/stm32f4xx_hal_rcc.c ****   }
 1773              		.loc 1 963 33 is_stmt 0 view .LVU526
 1774 0090 4FF48033 		mov	r3, #65536
 1775 0094 4360     		str	r3, [r0, #4]
 1776 0096 BDE7     		b	.L158
 1777              	.L159:
 967:Drivers/STM32F4xx_HAL_Driver/Src/stm32f4xx_hal_rcc.c ****   }
 1778              		.loc 1 967 5 is_stmt 1 view .LVU527
 967:Drivers/STM32F4xx_HAL_Driver/Src/stm32f4xx_hal_rcc.c ****   }
 1779              		.loc 1 967 33 is_stmt 0 view .LVU528
 1780 0098 0023     		movs	r3, #0
 1781 009a 4360     		str	r3, [r0, #4]
 1782 009c BAE7     		b	.L158
 1783              	.L160:
 977:Drivers/STM32F4xx_HAL_Driver/Src/stm32f4xx_hal_rcc.c ****   }
 1784              		.loc 1 977 5 is_stmt 1 view .LVU529
 977:Drivers/STM32F4xx_HAL_Driver/Src/stm32f4xx_hal_rcc.c ****   }
 1785              		.loc 1 977 33 is_stmt 0 view .LVU530
 1786 009e 0023     		movs	r3, #0
 1787 00a0 C360     		str	r3, [r0, #12]
 1788 00a2 BEE7     		b	.L161
 1789              	.L162:
 987:Drivers/STM32F4xx_HAL_Driver/Src/stm32f4xx_hal_rcc.c ****   {
ARM GAS  C:\Users\ncer\AppData\Local\Temp\ccYOzh7d.s 			page 54


 1790              		.loc 1 987 8 is_stmt 1 view .LVU531
 987:Drivers/STM32F4xx_HAL_Driver/Src/stm32f4xx_hal_rcc.c ****   {
 1791              		.loc 1 987 15 is_stmt 0 view .LVU532
 1792 00a4 084B     		ldr	r3, .L169
 1793 00a6 1B6F     		ldr	r3, [r3, #112]
 987:Drivers/STM32F4xx_HAL_Driver/Src/stm32f4xx_hal_rcc.c ****   {
 1794              		.loc 1 987 10 view .LVU533
 1795 00a8 13F0010F 		tst	r3, #1
 1796 00ac 02D0     		beq	.L164
 989:Drivers/STM32F4xx_HAL_Driver/Src/stm32f4xx_hal_rcc.c ****   }
 1797              		.loc 1 989 5 is_stmt 1 view .LVU534
 989:Drivers/STM32F4xx_HAL_Driver/Src/stm32f4xx_hal_rcc.c ****   }
 1798              		.loc 1 989 33 is_stmt 0 view .LVU535
 1799 00ae 0123     		movs	r3, #1
 1800 00b0 8360     		str	r3, [r0, #8]
 1801 00b2 C1E7     		b	.L163
 1802              	.L164:
 993:Drivers/STM32F4xx_HAL_Driver/Src/stm32f4xx_hal_rcc.c ****   }
 1803              		.loc 1 993 5 is_stmt 1 view .LVU536
 993:Drivers/STM32F4xx_HAL_Driver/Src/stm32f4xx_hal_rcc.c ****   }
 1804              		.loc 1 993 33 is_stmt 0 view .LVU537
 1805 00b4 0023     		movs	r3, #0
 1806 00b6 8360     		str	r3, [r0, #8]
 1807 00b8 BEE7     		b	.L163
 1808              	.L165:
1003:Drivers/STM32F4xx_HAL_Driver/Src/stm32f4xx_hal_rcc.c ****   }
 1809              		.loc 1 1003 5 is_stmt 1 view .LVU538
1003:Drivers/STM32F4xx_HAL_Driver/Src/stm32f4xx_hal_rcc.c ****   }
 1810              		.loc 1 1003 33 is_stmt 0 view .LVU539
 1811 00ba 0023     		movs	r3, #0
 1812 00bc 4361     		str	r3, [r0, #20]
 1813 00be C2E7     		b	.L166
 1814              	.L167:
1013:Drivers/STM32F4xx_HAL_Driver/Src/stm32f4xx_hal_rcc.c ****   }
 1815              		.loc 1 1013 5 is_stmt 1 view .LVU540
1013:Drivers/STM32F4xx_HAL_Driver/Src/stm32f4xx_hal_rcc.c ****   }
 1816              		.loc 1 1013 37 is_stmt 0 view .LVU541
 1817 00c0 0123     		movs	r3, #1
 1818 00c2 8361     		str	r3, [r0, #24]
 1819 00c4 C6E7     		b	.L168
 1820              	.L170:
 1821 00c6 00BF     		.align	2
 1822              	.L169:
 1823 00c8 00380240 		.word	1073887232
 1824              		.cfi_endproc
 1825              	.LFE140:
 1827              		.section	.text.HAL_RCC_GetClockConfig,"ax",%progbits
 1828              		.align	1
 1829              		.global	HAL_RCC_GetClockConfig
 1830              		.syntax unified
 1831              		.thumb
 1832              		.thumb_func
 1833              		.fpu fpv4-sp-d16
 1835              	HAL_RCC_GetClockConfig:
 1836              	.LVL99:
 1837              	.LFB141:
1021:Drivers/STM32F4xx_HAL_Driver/Src/stm32f4xx_hal_rcc.c **** 
ARM GAS  C:\Users\ncer\AppData\Local\Temp\ccYOzh7d.s 			page 55


1022:Drivers/STM32F4xx_HAL_Driver/Src/stm32f4xx_hal_rcc.c **** /**
1023:Drivers/STM32F4xx_HAL_Driver/Src/stm32f4xx_hal_rcc.c ****   * @brief  Configures the RCC_ClkInitStruct according to the internal
1024:Drivers/STM32F4xx_HAL_Driver/Src/stm32f4xx_hal_rcc.c ****   * RCC configuration registers.
1025:Drivers/STM32F4xx_HAL_Driver/Src/stm32f4xx_hal_rcc.c ****   * @param  RCC_ClkInitStruct pointer to an RCC_ClkInitTypeDef structure that
1026:Drivers/STM32F4xx_HAL_Driver/Src/stm32f4xx_hal_rcc.c ****   * will be configured.
1027:Drivers/STM32F4xx_HAL_Driver/Src/stm32f4xx_hal_rcc.c ****   * @param  pFLatency Pointer on the Flash Latency.
1028:Drivers/STM32F4xx_HAL_Driver/Src/stm32f4xx_hal_rcc.c ****   * @retval None
1029:Drivers/STM32F4xx_HAL_Driver/Src/stm32f4xx_hal_rcc.c ****   */
1030:Drivers/STM32F4xx_HAL_Driver/Src/stm32f4xx_hal_rcc.c **** void HAL_RCC_GetClockConfig(RCC_ClkInitTypeDef  *RCC_ClkInitStruct, uint32_t *pFLatency)
1031:Drivers/STM32F4xx_HAL_Driver/Src/stm32f4xx_hal_rcc.c **** {
 1838              		.loc 1 1031 1 is_stmt 1 view -0
 1839              		.cfi_startproc
 1840              		@ args = 0, pretend = 0, frame = 0
 1841              		@ frame_needed = 0, uses_anonymous_args = 0
 1842              		@ link register save eliminated.
1032:Drivers/STM32F4xx_HAL_Driver/Src/stm32f4xx_hal_rcc.c ****   /* Set all possible values for the Clock type parameter --------------------*/
1033:Drivers/STM32F4xx_HAL_Driver/Src/stm32f4xx_hal_rcc.c ****   RCC_ClkInitStruct->ClockType = RCC_CLOCKTYPE_SYSCLK | RCC_CLOCKTYPE_HCLK | RCC_CLOCKTYPE_PCLK1 | 
 1843              		.loc 1 1033 3 view .LVU543
 1844              		.loc 1 1033 32 is_stmt 0 view .LVU544
 1845 0000 0F23     		movs	r3, #15
 1846 0002 0360     		str	r3, [r0]
1034:Drivers/STM32F4xx_HAL_Driver/Src/stm32f4xx_hal_rcc.c **** 
1035:Drivers/STM32F4xx_HAL_Driver/Src/stm32f4xx_hal_rcc.c ****   /* Get the SYSCLK configuration --------------------------------------------*/
1036:Drivers/STM32F4xx_HAL_Driver/Src/stm32f4xx_hal_rcc.c ****   RCC_ClkInitStruct->SYSCLKSource = (uint32_t)(RCC->CFGR & RCC_CFGR_SW);
 1847              		.loc 1 1036 3 is_stmt 1 view .LVU545
 1848              		.loc 1 1036 51 is_stmt 0 view .LVU546
 1849 0004 0B4B     		ldr	r3, .L172
 1850 0006 9A68     		ldr	r2, [r3, #8]
 1851              		.loc 1 1036 37 view .LVU547
 1852 0008 02F00302 		and	r2, r2, #3
 1853              		.loc 1 1036 35 view .LVU548
 1854 000c 4260     		str	r2, [r0, #4]
1037:Drivers/STM32F4xx_HAL_Driver/Src/stm32f4xx_hal_rcc.c **** 
1038:Drivers/STM32F4xx_HAL_Driver/Src/stm32f4xx_hal_rcc.c ****   /* Get the HCLK configuration ----------------------------------------------*/
1039:Drivers/STM32F4xx_HAL_Driver/Src/stm32f4xx_hal_rcc.c ****   RCC_ClkInitStruct->AHBCLKDivider = (uint32_t)(RCC->CFGR & RCC_CFGR_HPRE);
 1855              		.loc 1 1039 3 is_stmt 1 view .LVU549
 1856              		.loc 1 1039 52 is_stmt 0 view .LVU550
 1857 000e 9A68     		ldr	r2, [r3, #8]
 1858              		.loc 1 1039 38 view .LVU551
 1859 0010 02F0F002 		and	r2, r2, #240
 1860              		.loc 1 1039 36 view .LVU552
 1861 0014 8260     		str	r2, [r0, #8]
1040:Drivers/STM32F4xx_HAL_Driver/Src/stm32f4xx_hal_rcc.c **** 
1041:Drivers/STM32F4xx_HAL_Driver/Src/stm32f4xx_hal_rcc.c ****   /* Get the APB1 configuration ----------------------------------------------*/
1042:Drivers/STM32F4xx_HAL_Driver/Src/stm32f4xx_hal_rcc.c ****   RCC_ClkInitStruct->APB1CLKDivider = (uint32_t)(RCC->CFGR & RCC_CFGR_PPRE1);
 1862              		.loc 1 1042 3 is_stmt 1 view .LVU553
 1863              		.loc 1 1042 53 is_stmt 0 view .LVU554
 1864 0016 9A68     		ldr	r2, [r3, #8]
 1865              		.loc 1 1042 39 view .LVU555
 1866 0018 02F4E052 		and	r2, r2, #7168
 1867              		.loc 1 1042 37 view .LVU556
 1868 001c C260     		str	r2, [r0, #12]
1043:Drivers/STM32F4xx_HAL_Driver/Src/stm32f4xx_hal_rcc.c **** 
1044:Drivers/STM32F4xx_HAL_Driver/Src/stm32f4xx_hal_rcc.c ****   /* Get the APB2 configuration ----------------------------------------------*/
1045:Drivers/STM32F4xx_HAL_Driver/Src/stm32f4xx_hal_rcc.c ****   RCC_ClkInitStruct->APB2CLKDivider = (uint32_t)((RCC->CFGR & RCC_CFGR_PPRE2) >> 3U);
 1869              		.loc 1 1045 3 is_stmt 1 view .LVU557
 1870              		.loc 1 1045 54 is_stmt 0 view .LVU558
ARM GAS  C:\Users\ncer\AppData\Local\Temp\ccYOzh7d.s 			page 56


 1871 001e 9B68     		ldr	r3, [r3, #8]
 1872              		.loc 1 1045 39 view .LVU559
 1873 0020 DB08     		lsrs	r3, r3, #3
 1874 0022 03F4E053 		and	r3, r3, #7168
 1875              		.loc 1 1045 37 view .LVU560
 1876 0026 0361     		str	r3, [r0, #16]
1046:Drivers/STM32F4xx_HAL_Driver/Src/stm32f4xx_hal_rcc.c **** 
1047:Drivers/STM32F4xx_HAL_Driver/Src/stm32f4xx_hal_rcc.c ****   /* Get the Flash Wait State (Latency) configuration ------------------------*/
1048:Drivers/STM32F4xx_HAL_Driver/Src/stm32f4xx_hal_rcc.c ****   *pFLatency = (uint32_t)(FLASH->ACR & FLASH_ACR_LATENCY);
 1877              		.loc 1 1048 3 is_stmt 1 view .LVU561
 1878              		.loc 1 1048 32 is_stmt 0 view .LVU562
 1879 0028 034B     		ldr	r3, .L172+4
 1880 002a 1B68     		ldr	r3, [r3]
 1881              		.loc 1 1048 16 view .LVU563
 1882 002c 03F00F03 		and	r3, r3, #15
 1883              		.loc 1 1048 14 view .LVU564
 1884 0030 0B60     		str	r3, [r1]
1049:Drivers/STM32F4xx_HAL_Driver/Src/stm32f4xx_hal_rcc.c **** }
 1885              		.loc 1 1049 1 view .LVU565
 1886 0032 7047     		bx	lr
 1887              	.L173:
 1888              		.align	2
 1889              	.L172:
 1890 0034 00380240 		.word	1073887232
 1891 0038 003C0240 		.word	1073888256
 1892              		.cfi_endproc
 1893              	.LFE141:
 1895              		.section	.text.HAL_RCC_CSSCallback,"ax",%progbits
 1896              		.align	1
 1897              		.weak	HAL_RCC_CSSCallback
 1898              		.syntax unified
 1899              		.thumb
 1900              		.thumb_func
 1901              		.fpu fpv4-sp-d16
 1903              	HAL_RCC_CSSCallback:
 1904              	.LFB143:
1050:Drivers/STM32F4xx_HAL_Driver/Src/stm32f4xx_hal_rcc.c **** 
1051:Drivers/STM32F4xx_HAL_Driver/Src/stm32f4xx_hal_rcc.c **** /**
1052:Drivers/STM32F4xx_HAL_Driver/Src/stm32f4xx_hal_rcc.c ****   * @brief This function handles the RCC CSS interrupt request.
1053:Drivers/STM32F4xx_HAL_Driver/Src/stm32f4xx_hal_rcc.c ****   * @note This API should be called under the NMI_Handler().
1054:Drivers/STM32F4xx_HAL_Driver/Src/stm32f4xx_hal_rcc.c ****   * @retval None
1055:Drivers/STM32F4xx_HAL_Driver/Src/stm32f4xx_hal_rcc.c ****   */
1056:Drivers/STM32F4xx_HAL_Driver/Src/stm32f4xx_hal_rcc.c **** void HAL_RCC_NMI_IRQHandler(void)
1057:Drivers/STM32F4xx_HAL_Driver/Src/stm32f4xx_hal_rcc.c **** {
1058:Drivers/STM32F4xx_HAL_Driver/Src/stm32f4xx_hal_rcc.c ****   /* Check RCC CSSF flag  */
1059:Drivers/STM32F4xx_HAL_Driver/Src/stm32f4xx_hal_rcc.c ****   if(__HAL_RCC_GET_IT(RCC_IT_CSS))
1060:Drivers/STM32F4xx_HAL_Driver/Src/stm32f4xx_hal_rcc.c ****   {
1061:Drivers/STM32F4xx_HAL_Driver/Src/stm32f4xx_hal_rcc.c ****     /* RCC Clock Security System interrupt user callback */
1062:Drivers/STM32F4xx_HAL_Driver/Src/stm32f4xx_hal_rcc.c ****     HAL_RCC_CSSCallback();
1063:Drivers/STM32F4xx_HAL_Driver/Src/stm32f4xx_hal_rcc.c **** 
1064:Drivers/STM32F4xx_HAL_Driver/Src/stm32f4xx_hal_rcc.c ****     /* Clear RCC CSS pending bit */
1065:Drivers/STM32F4xx_HAL_Driver/Src/stm32f4xx_hal_rcc.c ****     __HAL_RCC_CLEAR_IT(RCC_IT_CSS);
1066:Drivers/STM32F4xx_HAL_Driver/Src/stm32f4xx_hal_rcc.c ****   }
1067:Drivers/STM32F4xx_HAL_Driver/Src/stm32f4xx_hal_rcc.c **** }
1068:Drivers/STM32F4xx_HAL_Driver/Src/stm32f4xx_hal_rcc.c **** 
1069:Drivers/STM32F4xx_HAL_Driver/Src/stm32f4xx_hal_rcc.c **** /**
1070:Drivers/STM32F4xx_HAL_Driver/Src/stm32f4xx_hal_rcc.c ****   * @brief  RCC Clock Security System interrupt callback
ARM GAS  C:\Users\ncer\AppData\Local\Temp\ccYOzh7d.s 			page 57


1071:Drivers/STM32F4xx_HAL_Driver/Src/stm32f4xx_hal_rcc.c ****   * @retval None
1072:Drivers/STM32F4xx_HAL_Driver/Src/stm32f4xx_hal_rcc.c ****   */
1073:Drivers/STM32F4xx_HAL_Driver/Src/stm32f4xx_hal_rcc.c **** __weak void HAL_RCC_CSSCallback(void)
1074:Drivers/STM32F4xx_HAL_Driver/Src/stm32f4xx_hal_rcc.c **** {
 1905              		.loc 1 1074 1 is_stmt 1 view -0
 1906              		.cfi_startproc
 1907              		@ args = 0, pretend = 0, frame = 0
 1908              		@ frame_needed = 0, uses_anonymous_args = 0
 1909              		@ link register save eliminated.
1075:Drivers/STM32F4xx_HAL_Driver/Src/stm32f4xx_hal_rcc.c ****   /* NOTE : This function Should not be modified, when the callback is needed,
1076:Drivers/STM32F4xx_HAL_Driver/Src/stm32f4xx_hal_rcc.c ****             the HAL_RCC_CSSCallback could be implemented in the user file
1077:Drivers/STM32F4xx_HAL_Driver/Src/stm32f4xx_hal_rcc.c ****    */
1078:Drivers/STM32F4xx_HAL_Driver/Src/stm32f4xx_hal_rcc.c **** }
 1910              		.loc 1 1078 1 view .LVU567
 1911 0000 7047     		bx	lr
 1912              		.cfi_endproc
 1913              	.LFE143:
 1915              		.section	.text.HAL_RCC_NMI_IRQHandler,"ax",%progbits
 1916              		.align	1
 1917              		.global	HAL_RCC_NMI_IRQHandler
 1918              		.syntax unified
 1919              		.thumb
 1920              		.thumb_func
 1921              		.fpu fpv4-sp-d16
 1923              	HAL_RCC_NMI_IRQHandler:
 1924              	.LFB142:
1057:Drivers/STM32F4xx_HAL_Driver/Src/stm32f4xx_hal_rcc.c ****   /* Check RCC CSSF flag  */
 1925              		.loc 1 1057 1 view -0
 1926              		.cfi_startproc
 1927              		@ args = 0, pretend = 0, frame = 0
 1928              		@ frame_needed = 0, uses_anonymous_args = 0
 1929 0000 08B5     		push	{r3, lr}
 1930              	.LCFI17:
 1931              		.cfi_def_cfa_offset 8
 1932              		.cfi_offset 3, -8
 1933              		.cfi_offset 14, -4
1059:Drivers/STM32F4xx_HAL_Driver/Src/stm32f4xx_hal_rcc.c ****   {
 1934              		.loc 1 1059 3 view .LVU569
1059:Drivers/STM32F4xx_HAL_Driver/Src/stm32f4xx_hal_rcc.c ****   {
 1935              		.loc 1 1059 6 is_stmt 0 view .LVU570
 1936 0002 064B     		ldr	r3, .L179
 1937 0004 DB68     		ldr	r3, [r3, #12]
1059:Drivers/STM32F4xx_HAL_Driver/Src/stm32f4xx_hal_rcc.c ****   {
 1938              		.loc 1 1059 5 view .LVU571
 1939 0006 13F0800F 		tst	r3, #128
 1940 000a 00D1     		bne	.L178
 1941              	.L175:
1067:Drivers/STM32F4xx_HAL_Driver/Src/stm32f4xx_hal_rcc.c **** 
 1942              		.loc 1 1067 1 view .LVU572
 1943 000c 08BD     		pop	{r3, pc}
 1944              	.L178:
1062:Drivers/STM32F4xx_HAL_Driver/Src/stm32f4xx_hal_rcc.c **** 
 1945              		.loc 1 1062 5 is_stmt 1 view .LVU573
 1946 000e FFF7FEFF 		bl	HAL_RCC_CSSCallback
 1947              	.LVL100:
1065:Drivers/STM32F4xx_HAL_Driver/Src/stm32f4xx_hal_rcc.c ****   }
 1948              		.loc 1 1065 5 view .LVU574
ARM GAS  C:\Users\ncer\AppData\Local\Temp\ccYOzh7d.s 			page 58


 1949 0012 034B     		ldr	r3, .L179+4
 1950 0014 8022     		movs	r2, #128
 1951 0016 1A70     		strb	r2, [r3]
1067:Drivers/STM32F4xx_HAL_Driver/Src/stm32f4xx_hal_rcc.c **** 
 1952              		.loc 1 1067 1 is_stmt 0 view .LVU575
 1953 0018 F8E7     		b	.L175
 1954              	.L180:
 1955 001a 00BF     		.align	2
 1956              	.L179:
 1957 001c 00380240 		.word	1073887232
 1958 0020 0E380240 		.word	1073887246
 1959              		.cfi_endproc
 1960              	.LFE142:
 1962              		.text
 1963              	.Letext0:
 1964              		.file 2 "c:\\arm_gcc\\arm-none-eabi\\include\\machine\\_default_types.h"
 1965              		.file 3 "c:\\arm_gcc\\arm-none-eabi\\include\\sys\\_stdint.h"
 1966              		.file 4 "Drivers/CMSIS/Include/core_cm4.h"
 1967              		.file 5 "Drivers/CMSIS/Device/ST/STM32F4xx/Include/system_stm32f4xx.h"
 1968              		.file 6 "Drivers/CMSIS/Device/ST/STM32F4xx/Include/stm32f405xx.h"
 1969              		.file 7 "Drivers/CMSIS/Device/ST/STM32F4xx/Include/stm32f4xx.h"
 1970              		.file 8 "Drivers/STM32F4xx_HAL_Driver/Inc/stm32f4xx_hal_def.h"
 1971              		.file 9 "Drivers/STM32F4xx_HAL_Driver/Inc/stm32f4xx_hal_rcc_ex.h"
 1972              		.file 10 "Drivers/STM32F4xx_HAL_Driver/Inc/stm32f4xx_hal_rcc.h"
 1973              		.file 11 "Drivers/STM32F4xx_HAL_Driver/Inc/stm32f4xx_hal_gpio.h"
 1974              		.file 12 "Drivers/STM32F4xx_HAL_Driver/Inc/stm32f4xx_hal.h"
ARM GAS  C:\Users\ncer\AppData\Local\Temp\ccYOzh7d.s 			page 59

