ARM GAS  C:\Users\ncer\AppData\Local\Temp\cctmLQN9.s 			page 1


   1              		.cpu cortex-m4
   2              		.eabi_attribute 27, 1
   3              		.eabi_attribute 28, 1
   4              		.eabi_attribute 20, 1
   5              		.eabi_attribute 21, 1
   6              		.eabi_attribute 23, 3
   7              		.eabi_attribute 24, 1
   8              		.eabi_attribute 25, 1
   9              		.eabi_attribute 26, 1
  10              		.eabi_attribute 30, 1
  11              		.eabi_attribute 34, 1
  12              		.eabi_attribute 18, 4
  13              		.file	"tim.c"
  14              		.text
  15              	.Ltext0:
  16              		.cfi_sections	.debug_frame
  17              		.section	.text.MX_TIM4_Init,"ax",%progbits
  18              		.align	1
  19              		.global	MX_TIM4_Init
  20              		.arch armv7e-m
  21              		.syntax unified
  22              		.thumb
  23              		.thumb_func
  24              		.fpu fpv4-sp-d16
  26              	MX_TIM4_Init:
  27              	.LFB130:
  28              		.file 1 "Src/tim.c"
   1:Src/tim.c     **** /**
   2:Src/tim.c     ****   ******************************************************************************
   3:Src/tim.c     ****   * File Name          : TIM.c
   4:Src/tim.c     ****   * Description        : This file provides code for the configuration
   5:Src/tim.c     ****   *                      of the TIM instances.
   6:Src/tim.c     ****   ******************************************************************************
   7:Src/tim.c     ****   * @attention
   8:Src/tim.c     ****   *
   9:Src/tim.c     ****   * <h2><center>&copy; Copyright (c) 2019 STMicroelectronics.
  10:Src/tim.c     ****   * All rights reserved.</center></h2>
  11:Src/tim.c     ****   *
  12:Src/tim.c     ****   * This software component is licensed by ST under BSD 3-Clause license,
  13:Src/tim.c     ****   * the "License"; You may not use this file except in compliance with the
  14:Src/tim.c     ****   * License. You may obtain a copy of the License at:
  15:Src/tim.c     ****   *                        opensource.org/licenses/BSD-3-Clause
  16:Src/tim.c     ****   *
  17:Src/tim.c     ****   ******************************************************************************
  18:Src/tim.c     ****   */
  19:Src/tim.c     **** 
  20:Src/tim.c     **** /* Includes ------------------------------------------------------------------*/
  21:Src/tim.c     **** #include "tim.h"
  22:Src/tim.c     **** 
  23:Src/tim.c     **** /* USER CODE BEGIN 0 */
  24:Src/tim.c     **** 
  25:Src/tim.c     **** /* USER CODE END 0 */
  26:Src/tim.c     **** 
  27:Src/tim.c     **** TIM_HandleTypeDef htim4;
  28:Src/tim.c     **** TIM_HandleTypeDef htim6;
  29:Src/tim.c     **** TIM_HandleTypeDef htim7;
  30:Src/tim.c     **** TIM_HandleTypeDef htim8;
ARM GAS  C:\Users\ncer\AppData\Local\Temp\cctmLQN9.s 			page 2


  31:Src/tim.c     **** 
  32:Src/tim.c     **** /* TIM4 init function */
  33:Src/tim.c     **** void MX_TIM4_Init(void)
  34:Src/tim.c     **** {
  29              		.loc 1 34 1 view -0
  30              		.cfi_startproc
  31              		@ args = 0, pretend = 0, frame = 48
  32              		@ frame_needed = 0, uses_anonymous_args = 0
  33 0000 00B5     		push	{lr}
  34              	.LCFI0:
  35              		.cfi_def_cfa_offset 4
  36              		.cfi_offset 14, -4
  37 0002 8DB0     		sub	sp, sp, #52
  38              	.LCFI1:
  39              		.cfi_def_cfa_offset 56
  35:Src/tim.c     ****   TIM_Encoder_InitTypeDef sConfig = {0};
  40              		.loc 1 35 3 view .LVU1
  36:Src/tim.c     ****   TIM_MasterConfigTypeDef sMasterConfig = {0};
  41              		.loc 1 36 3 view .LVU2
  42              		.loc 1 36 27 is_stmt 0 view .LVU3
  43 0004 0023     		movs	r3, #0
  44 0006 0193     		str	r3, [sp, #4]
  45 0008 0293     		str	r3, [sp, #8]
  37:Src/tim.c     **** 
  38:Src/tim.c     ****   htim4.Instance = TIM4;
  46              		.loc 1 38 3 is_stmt 1 view .LVU4
  47              		.loc 1 38 18 is_stmt 0 view .LVU5
  48 000a 1348     		ldr	r0, .L7
  49 000c 134A     		ldr	r2, .L7+4
  50 000e 0260     		str	r2, [r0]
  39:Src/tim.c     ****   htim4.Init.Prescaler = 0;
  51              		.loc 1 39 3 is_stmt 1 view .LVU6
  52              		.loc 1 39 24 is_stmt 0 view .LVU7
  53 0010 4360     		str	r3, [r0, #4]
  40:Src/tim.c     ****   htim4.Init.CounterMode = TIM_COUNTERMODE_UP;
  54              		.loc 1 40 3 is_stmt 1 view .LVU8
  55              		.loc 1 40 26 is_stmt 0 view .LVU9
  56 0012 8360     		str	r3, [r0, #8]
  41:Src/tim.c     ****   htim4.Init.Period = 0;
  57              		.loc 1 41 3 is_stmt 1 view .LVU10
  58              		.loc 1 41 21 is_stmt 0 view .LVU11
  59 0014 C360     		str	r3, [r0, #12]
  42:Src/tim.c     ****   htim4.Init.ClockDivision = TIM_CLOCKDIVISION_DIV1;
  60              		.loc 1 42 3 is_stmt 1 view .LVU12
  61              		.loc 1 42 28 is_stmt 0 view .LVU13
  62 0016 0361     		str	r3, [r0, #16]
  43:Src/tim.c     ****   htim4.Init.AutoReloadPreload = TIM_AUTORELOAD_PRELOAD_DISABLE;
  63              		.loc 1 43 3 is_stmt 1 view .LVU14
  64              		.loc 1 43 32 is_stmt 0 view .LVU15
  65 0018 8361     		str	r3, [r0, #24]
  44:Src/tim.c     ****   sConfig.EncoderMode = TIM_ENCODERMODE_TI1;
  66              		.loc 1 44 3 is_stmt 1 view .LVU16
  67              		.loc 1 44 23 is_stmt 0 view .LVU17
  68 001a 0122     		movs	r2, #1
  69 001c 0392     		str	r2, [sp, #12]
  45:Src/tim.c     ****   sConfig.IC1Polarity = TIM_ICPOLARITY_RISING;
  70              		.loc 1 45 3 is_stmt 1 view .LVU18
ARM GAS  C:\Users\ncer\AppData\Local\Temp\cctmLQN9.s 			page 3


  71              		.loc 1 45 23 is_stmt 0 view .LVU19
  72 001e 0493     		str	r3, [sp, #16]
  46:Src/tim.c     ****   sConfig.IC1Selection = TIM_ICSELECTION_DIRECTTI;
  73              		.loc 1 46 3 is_stmt 1 view .LVU20
  74              		.loc 1 46 24 is_stmt 0 view .LVU21
  75 0020 0592     		str	r2, [sp, #20]
  47:Src/tim.c     ****   sConfig.IC1Prescaler = TIM_ICPSC_DIV1;
  76              		.loc 1 47 3 is_stmt 1 view .LVU22
  77              		.loc 1 47 24 is_stmt 0 view .LVU23
  78 0022 0693     		str	r3, [sp, #24]
  48:Src/tim.c     ****   sConfig.IC1Filter = 0;
  79              		.loc 1 48 3 is_stmt 1 view .LVU24
  80              		.loc 1 48 21 is_stmt 0 view .LVU25
  81 0024 0793     		str	r3, [sp, #28]
  49:Src/tim.c     ****   sConfig.IC2Polarity = TIM_ICPOLARITY_RISING;
  82              		.loc 1 49 3 is_stmt 1 view .LVU26
  83              		.loc 1 49 23 is_stmt 0 view .LVU27
  84 0026 0893     		str	r3, [sp, #32]
  50:Src/tim.c     ****   sConfig.IC2Selection = TIM_ICSELECTION_DIRECTTI;
  85              		.loc 1 50 3 is_stmt 1 view .LVU28
  86              		.loc 1 50 24 is_stmt 0 view .LVU29
  87 0028 0992     		str	r2, [sp, #36]
  51:Src/tim.c     ****   sConfig.IC2Prescaler = TIM_ICPSC_DIV1;
  88              		.loc 1 51 3 is_stmt 1 view .LVU30
  89              		.loc 1 51 24 is_stmt 0 view .LVU31
  90 002a 0A93     		str	r3, [sp, #40]
  52:Src/tim.c     ****   sConfig.IC2Filter = 0;
  91              		.loc 1 52 3 is_stmt 1 view .LVU32
  92              		.loc 1 52 21 is_stmt 0 view .LVU33
  93 002c 0B93     		str	r3, [sp, #44]
  53:Src/tim.c     ****   if (HAL_TIM_Encoder_Init(&htim4, &sConfig) != HAL_OK)
  94              		.loc 1 53 3 is_stmt 1 view .LVU34
  95              		.loc 1 53 7 is_stmt 0 view .LVU35
  96 002e 03A9     		add	r1, sp, #12
  97 0030 FFF7FEFF 		bl	HAL_TIM_Encoder_Init
  98              	.LVL0:
  99              		.loc 1 53 6 view .LVU36
 100 0034 50B9     		cbnz	r0, .L5
 101              	.L2:
  54:Src/tim.c     ****   {
  55:Src/tim.c     ****     Error_Handler();
  56:Src/tim.c     ****   }
  57:Src/tim.c     ****   sMasterConfig.MasterOutputTrigger = TIM_TRGO_RESET;
 102              		.loc 1 57 3 is_stmt 1 view .LVU37
 103              		.loc 1 57 37 is_stmt 0 view .LVU38
 104 0036 0023     		movs	r3, #0
 105 0038 0193     		str	r3, [sp, #4]
  58:Src/tim.c     ****   sMasterConfig.MasterSlaveMode = TIM_MASTERSLAVEMODE_DISABLE;
 106              		.loc 1 58 3 is_stmt 1 view .LVU39
 107              		.loc 1 58 33 is_stmt 0 view .LVU40
 108 003a 0293     		str	r3, [sp, #8]
  59:Src/tim.c     ****   if (HAL_TIMEx_MasterConfigSynchronization(&htim4, &sMasterConfig) != HAL_OK)
 109              		.loc 1 59 3 is_stmt 1 view .LVU41
 110              		.loc 1 59 7 is_stmt 0 view .LVU42
 111 003c 01A9     		add	r1, sp, #4
 112 003e 0648     		ldr	r0, .L7
 113 0040 FFF7FEFF 		bl	HAL_TIMEx_MasterConfigSynchronization
ARM GAS  C:\Users\ncer\AppData\Local\Temp\cctmLQN9.s 			page 4


 114              	.LVL1:
 115              		.loc 1 59 6 view .LVU43
 116 0044 28B9     		cbnz	r0, .L6
 117              	.L1:
  60:Src/tim.c     ****   {
  61:Src/tim.c     ****     Error_Handler();
  62:Src/tim.c     ****   }
  63:Src/tim.c     **** 
  64:Src/tim.c     **** }
 118              		.loc 1 64 1 view .LVU44
 119 0046 0DB0     		add	sp, sp, #52
 120              	.LCFI2:
 121              		.cfi_remember_state
 122              		.cfi_def_cfa_offset 4
 123              		@ sp needed
 124 0048 5DF804FB 		ldr	pc, [sp], #4
 125              	.L5:
 126              	.LCFI3:
 127              		.cfi_restore_state
  55:Src/tim.c     ****   }
 128              		.loc 1 55 5 is_stmt 1 view .LVU45
 129 004c FFF7FEFF 		bl	Error_Handler
 130              	.LVL2:
 131 0050 F1E7     		b	.L2
 132              	.L6:
  61:Src/tim.c     ****   }
 133              		.loc 1 61 5 view .LVU46
 134 0052 FFF7FEFF 		bl	Error_Handler
 135              	.LVL3:
 136              		.loc 1 64 1 is_stmt 0 view .LVU47
 137 0056 F6E7     		b	.L1
 138              	.L8:
 139              		.align	2
 140              	.L7:
 141 0058 00000000 		.word	htim4
 142 005c 00080040 		.word	1073743872
 143              		.cfi_endproc
 144              	.LFE130:
 146              		.section	.text.MX_TIM6_Init,"ax",%progbits
 147              		.align	1
 148              		.global	MX_TIM6_Init
 149              		.syntax unified
 150              		.thumb
 151              		.thumb_func
 152              		.fpu fpv4-sp-d16
 154              	MX_TIM6_Init:
 155              	.LFB131:
  65:Src/tim.c     **** /* TIM6 init function */
  66:Src/tim.c     **** void MX_TIM6_Init(void)
  67:Src/tim.c     **** {
 156              		.loc 1 67 1 is_stmt 1 view -0
 157              		.cfi_startproc
 158              		@ args = 0, pretend = 0, frame = 8
 159              		@ frame_needed = 0, uses_anonymous_args = 0
 160 0000 00B5     		push	{lr}
 161              	.LCFI4:
 162              		.cfi_def_cfa_offset 4
ARM GAS  C:\Users\ncer\AppData\Local\Temp\cctmLQN9.s 			page 5


 163              		.cfi_offset 14, -4
 164 0002 83B0     		sub	sp, sp, #12
 165              	.LCFI5:
 166              		.cfi_def_cfa_offset 16
  68:Src/tim.c     ****   TIM_MasterConfigTypeDef sMasterConfig = {0};
 167              		.loc 1 68 3 view .LVU49
 168              		.loc 1 68 27 is_stmt 0 view .LVU50
 169 0004 0023     		movs	r3, #0
 170 0006 0093     		str	r3, [sp]
 171 0008 0193     		str	r3, [sp, #4]
  69:Src/tim.c     **** 
  70:Src/tim.c     ****   htim6.Instance = TIM6;
 172              		.loc 1 70 3 is_stmt 1 view .LVU51
 173              		.loc 1 70 18 is_stmt 0 view .LVU52
 174 000a 0E48     		ldr	r0, .L15
 175 000c 0E4A     		ldr	r2, .L15+4
 176 000e 0260     		str	r2, [r0]
  71:Src/tim.c     ****   htim6.Init.Prescaler = 0;
 177              		.loc 1 71 3 is_stmt 1 view .LVU53
 178              		.loc 1 71 24 is_stmt 0 view .LVU54
 179 0010 4360     		str	r3, [r0, #4]
  72:Src/tim.c     ****   htim6.Init.CounterMode = TIM_COUNTERMODE_UP;
 180              		.loc 1 72 3 is_stmt 1 view .LVU55
 181              		.loc 1 72 26 is_stmt 0 view .LVU56
 182 0012 8360     		str	r3, [r0, #8]
  73:Src/tim.c     ****   htim6.Init.Period = 9333;
 183              		.loc 1 73 3 is_stmt 1 view .LVU57
 184              		.loc 1 73 21 is_stmt 0 view .LVU58
 185 0014 42F27542 		movw	r2, #9333
 186 0018 C260     		str	r2, [r0, #12]
  74:Src/tim.c     ****   htim6.Init.AutoReloadPreload = TIM_AUTORELOAD_PRELOAD_DISABLE;
 187              		.loc 1 74 3 is_stmt 1 view .LVU59
 188              		.loc 1 74 32 is_stmt 0 view .LVU60
 189 001a 8361     		str	r3, [r0, #24]
  75:Src/tim.c     ****   if (HAL_TIM_Base_Init(&htim6) != HAL_OK)
 190              		.loc 1 75 3 is_stmt 1 view .LVU61
 191              		.loc 1 75 7 is_stmt 0 view .LVU62
 192 001c FFF7FEFF 		bl	HAL_TIM_Base_Init
 193              	.LVL4:
 194              		.loc 1 75 6 view .LVU63
 195 0020 50B9     		cbnz	r0, .L13
 196              	.L10:
  76:Src/tim.c     ****   {
  77:Src/tim.c     ****     Error_Handler();
  78:Src/tim.c     ****   }
  79:Src/tim.c     ****   sMasterConfig.MasterOutputTrigger = TIM_TRGO_RESET;
 197              		.loc 1 79 3 is_stmt 1 view .LVU64
 198              		.loc 1 79 37 is_stmt 0 view .LVU65
 199 0022 0023     		movs	r3, #0
 200 0024 0093     		str	r3, [sp]
  80:Src/tim.c     ****   sMasterConfig.MasterSlaveMode = TIM_MASTERSLAVEMODE_DISABLE;
 201              		.loc 1 80 3 is_stmt 1 view .LVU66
 202              		.loc 1 80 33 is_stmt 0 view .LVU67
 203 0026 0193     		str	r3, [sp, #4]
  81:Src/tim.c     ****   if (HAL_TIMEx_MasterConfigSynchronization(&htim6, &sMasterConfig) != HAL_OK)
 204              		.loc 1 81 3 is_stmt 1 view .LVU68
 205              		.loc 1 81 7 is_stmt 0 view .LVU69
ARM GAS  C:\Users\ncer\AppData\Local\Temp\cctmLQN9.s 			page 6


 206 0028 6946     		mov	r1, sp
 207 002a 0648     		ldr	r0, .L15
 208 002c FFF7FEFF 		bl	HAL_TIMEx_MasterConfigSynchronization
 209              	.LVL5:
 210              		.loc 1 81 6 view .LVU70
 211 0030 28B9     		cbnz	r0, .L14
 212              	.L9:
  82:Src/tim.c     ****   {
  83:Src/tim.c     ****     Error_Handler();
  84:Src/tim.c     ****   }
  85:Src/tim.c     **** 
  86:Src/tim.c     **** }
 213              		.loc 1 86 1 view .LVU71
 214 0032 03B0     		add	sp, sp, #12
 215              	.LCFI6:
 216              		.cfi_remember_state
 217              		.cfi_def_cfa_offset 4
 218              		@ sp needed
 219 0034 5DF804FB 		ldr	pc, [sp], #4
 220              	.L13:
 221              	.LCFI7:
 222              		.cfi_restore_state
  77:Src/tim.c     ****   }
 223              		.loc 1 77 5 is_stmt 1 view .LVU72
 224 0038 FFF7FEFF 		bl	Error_Handler
 225              	.LVL6:
 226 003c F1E7     		b	.L10
 227              	.L14:
  83:Src/tim.c     ****   }
 228              		.loc 1 83 5 view .LVU73
 229 003e FFF7FEFF 		bl	Error_Handler
 230              	.LVL7:
 231              		.loc 1 86 1 is_stmt 0 view .LVU74
 232 0042 F6E7     		b	.L9
 233              	.L16:
 234              		.align	2
 235              	.L15:
 236 0044 00000000 		.word	htim6
 237 0048 00100040 		.word	1073745920
 238              		.cfi_endproc
 239              	.LFE131:
 241              		.section	.text.MX_TIM7_Init,"ax",%progbits
 242              		.align	1
 243              		.global	MX_TIM7_Init
 244              		.syntax unified
 245              		.thumb
 246              		.thumb_func
 247              		.fpu fpv4-sp-d16
 249              	MX_TIM7_Init:
 250              	.LFB132:
  87:Src/tim.c     **** /* TIM7 init function */
  88:Src/tim.c     **** void MX_TIM7_Init(void)
  89:Src/tim.c     **** {
 251              		.loc 1 89 1 is_stmt 1 view -0
 252              		.cfi_startproc
 253              		@ args = 0, pretend = 0, frame = 8
 254              		@ frame_needed = 0, uses_anonymous_args = 0
ARM GAS  C:\Users\ncer\AppData\Local\Temp\cctmLQN9.s 			page 7


 255 0000 00B5     		push	{lr}
 256              	.LCFI8:
 257              		.cfi_def_cfa_offset 4
 258              		.cfi_offset 14, -4
 259 0002 83B0     		sub	sp, sp, #12
 260              	.LCFI9:
 261              		.cfi_def_cfa_offset 16
  90:Src/tim.c     ****   TIM_MasterConfigTypeDef sMasterConfig = {0};
 262              		.loc 1 90 3 view .LVU76
 263              		.loc 1 90 27 is_stmt 0 view .LVU77
 264 0004 0023     		movs	r3, #0
 265 0006 0093     		str	r3, [sp]
 266 0008 0193     		str	r3, [sp, #4]
  91:Src/tim.c     **** 
  92:Src/tim.c     ****   htim7.Instance = TIM7;
 267              		.loc 1 92 3 is_stmt 1 view .LVU78
 268              		.loc 1 92 18 is_stmt 0 view .LVU79
 269 000a 0F48     		ldr	r0, .L23
 270 000c 0F4A     		ldr	r2, .L23+4
 271 000e 0260     		str	r2, [r0]
  93:Src/tim.c     ****   htim7.Init.Prescaler = 0;
 272              		.loc 1 93 3 is_stmt 1 view .LVU80
 273              		.loc 1 93 24 is_stmt 0 view .LVU81
 274 0010 4360     		str	r3, [r0, #4]
  94:Src/tim.c     ****   htim7.Init.CounterMode = TIM_COUNTERMODE_UP;
 275              		.loc 1 94 3 is_stmt 1 view .LVU82
 276              		.loc 1 94 26 is_stmt 0 view .LVU83
 277 0012 8360     		str	r3, [r0, #8]
  95:Src/tim.c     ****   htim7.Init.Period = 420;
 278              		.loc 1 95 3 is_stmt 1 view .LVU84
 279              		.loc 1 95 21 is_stmt 0 view .LVU85
 280 0014 4FF4D273 		mov	r3, #420
 281 0018 C360     		str	r3, [r0, #12]
  96:Src/tim.c     ****   htim7.Init.AutoReloadPreload = TIM_AUTORELOAD_PRELOAD_ENABLE;
 282              		.loc 1 96 3 is_stmt 1 view .LVU86
 283              		.loc 1 96 32 is_stmt 0 view .LVU87
 284 001a 8023     		movs	r3, #128
 285 001c 8361     		str	r3, [r0, #24]
  97:Src/tim.c     ****   if (HAL_TIM_Base_Init(&htim7) != HAL_OK)
 286              		.loc 1 97 3 is_stmt 1 view .LVU88
 287              		.loc 1 97 7 is_stmt 0 view .LVU89
 288 001e FFF7FEFF 		bl	HAL_TIM_Base_Init
 289              	.LVL8:
 290              		.loc 1 97 6 view .LVU90
 291 0022 50B9     		cbnz	r0, .L21
 292              	.L18:
  98:Src/tim.c     ****   {
  99:Src/tim.c     ****     Error_Handler();
 100:Src/tim.c     ****   }
 101:Src/tim.c     ****   sMasterConfig.MasterOutputTrigger = TIM_TRGO_RESET;
 293              		.loc 1 101 3 is_stmt 1 view .LVU91
 294              		.loc 1 101 37 is_stmt 0 view .LVU92
 295 0024 0023     		movs	r3, #0
 296 0026 0093     		str	r3, [sp]
 102:Src/tim.c     ****   sMasterConfig.MasterSlaveMode = TIM_MASTERSLAVEMODE_DISABLE;
 297              		.loc 1 102 3 is_stmt 1 view .LVU93
 298              		.loc 1 102 33 is_stmt 0 view .LVU94
ARM GAS  C:\Users\ncer\AppData\Local\Temp\cctmLQN9.s 			page 8


 299 0028 0193     		str	r3, [sp, #4]
 103:Src/tim.c     ****   if (HAL_TIMEx_MasterConfigSynchronization(&htim7, &sMasterConfig) != HAL_OK)
 300              		.loc 1 103 3 is_stmt 1 view .LVU95
 301              		.loc 1 103 7 is_stmt 0 view .LVU96
 302 002a 6946     		mov	r1, sp
 303 002c 0648     		ldr	r0, .L23
 304 002e FFF7FEFF 		bl	HAL_TIMEx_MasterConfigSynchronization
 305              	.LVL9:
 306              		.loc 1 103 6 view .LVU97
 307 0032 28B9     		cbnz	r0, .L22
 308              	.L17:
 104:Src/tim.c     ****   {
 105:Src/tim.c     ****     Error_Handler();
 106:Src/tim.c     ****   }
 107:Src/tim.c     **** 
 108:Src/tim.c     **** }
 309              		.loc 1 108 1 view .LVU98
 310 0034 03B0     		add	sp, sp, #12
 311              	.LCFI10:
 312              		.cfi_remember_state
 313              		.cfi_def_cfa_offset 4
 314              		@ sp needed
 315 0036 5DF804FB 		ldr	pc, [sp], #4
 316              	.L21:
 317              	.LCFI11:
 318              		.cfi_restore_state
  99:Src/tim.c     ****   }
 319              		.loc 1 99 5 is_stmt 1 view .LVU99
 320 003a FFF7FEFF 		bl	Error_Handler
 321              	.LVL10:
 322 003e F1E7     		b	.L18
 323              	.L22:
 105:Src/tim.c     ****   }
 324              		.loc 1 105 5 view .LVU100
 325 0040 FFF7FEFF 		bl	Error_Handler
 326              	.LVL11:
 327              		.loc 1 108 1 is_stmt 0 view .LVU101
 328 0044 F6E7     		b	.L17
 329              	.L24:
 330 0046 00BF     		.align	2
 331              	.L23:
 332 0048 00000000 		.word	htim7
 333 004c 00140040 		.word	1073746944
 334              		.cfi_endproc
 335              	.LFE132:
 337              		.section	.text.HAL_TIM_Encoder_MspInit,"ax",%progbits
 338              		.align	1
 339              		.global	HAL_TIM_Encoder_MspInit
 340              		.syntax unified
 341              		.thumb
 342              		.thumb_func
 343              		.fpu fpv4-sp-d16
 345              	HAL_TIM_Encoder_MspInit:
 346              	.LVL12:
 347              	.LFB134:
 109:Src/tim.c     **** /* TIM8 init function */
 110:Src/tim.c     **** void MX_TIM8_Init(void)
ARM GAS  C:\Users\ncer\AppData\Local\Temp\cctmLQN9.s 			page 9


 111:Src/tim.c     **** {
 112:Src/tim.c     ****   TIM_MasterConfigTypeDef sMasterConfig = {0};
 113:Src/tim.c     ****   TIM_OC_InitTypeDef sConfigOC = {0};
 114:Src/tim.c     ****   TIM_BreakDeadTimeConfigTypeDef sBreakDeadTimeConfig = {0};
 115:Src/tim.c     **** 
 116:Src/tim.c     ****   htim8.Instance = TIM8;
 117:Src/tim.c     ****   htim8.Init.Prescaler = 0;
 118:Src/tim.c     ****   htim8.Init.CounterMode = TIM_COUNTERMODE_CENTERALIGNED1;
 119:Src/tim.c     ****   htim8.Init.Period = 3360;   // 25K   168M/25K/2;
 120:Src/tim.c     ****   htim8.Init.ClockDivision = TIM_CLOCKDIVISION_DIV1;
 121:Src/tim.c     ****   htim8.Init.RepetitionCounter = 1;
 122:Src/tim.c     ****   htim8.Init.AutoReloadPreload = TIM_AUTORELOAD_PRELOAD_DISABLE;
 123:Src/tim.c     ****   if (HAL_TIM_PWM_Init(&htim8) != HAL_OK)
 124:Src/tim.c     ****   {
 125:Src/tim.c     ****     Error_Handler();
 126:Src/tim.c     ****   }
 127:Src/tim.c     ****   if (HAL_TIM_OC_Init(&htim8) != HAL_OK)
 128:Src/tim.c     ****   {
 129:Src/tim.c     ****     Error_Handler();
 130:Src/tim.c     ****   }
 131:Src/tim.c     ****   sMasterConfig.MasterOutputTrigger = TIM_TRGO_OC4REF;
 132:Src/tim.c     ****   sMasterConfig.MasterSlaveMode = TIM_MASTERSLAVEMODE_DISABLE;
 133:Src/tim.c     ****   if (HAL_TIMEx_MasterConfigSynchronization(&htim8, &sMasterConfig) != HAL_OK)
 134:Src/tim.c     ****   {
 135:Src/tim.c     ****     Error_Handler();
 136:Src/tim.c     ****   }
 137:Src/tim.c     ****   // ä¿®æ”¹PWM1æˆ–è€…PWM2ï¼Œå…¶ä»–è®¾ç½®ä¸€æ ·çš„è¯ï¼Œåˆ™ç”µæœºè¿è¡Œæ–¹å‘ç›¸å
 138:Src/tim.c     ****   // å‡è®¾PWM2çš„U4ï¼Œabcä¸º 100ï¼Œå¦‚æžœè®¾ç½®æˆPWM1 åˆ™ä¸º011ï¼Œå˜æˆäº†U3 ï¼ˆä½ç½®åŽŸç‚¹æ˜¯è
 139:Src/tim.c     ****   // é‚£ä¹ˆåŽŸæ¥PWM2çš„U4å®žé™…ä¸Šå°±æ˜¯PWM1çš„U3ï¼Œè¦è®©å®ƒè¿è¡Œï¼Œä¸‹ä¸€ä¸ªæœŸæœ›çŸ¢é‡æ˜¯0+90
 140:Src/tim.c     ****   // æ¢æˆPWM1åŽï¼Œè¿™ä¸ªæœŸæœ›çŸ¢é‡çš„ä½ç½®å˜æˆäº†270åº¦ï¼Œæ‰€ä»¥è¿è¡Œæ–¹å‘åäº†
 141:Src/tim.c     ****   sConfigOC.OCMode = TIM_OCMODE_PWM1;  
 142:Src/tim.c     ****   sConfigOC.Pulse = 0;
 143:Src/tim.c     ****   sConfigOC.OCPolarity = TIM_OCPOLARITY_HIGH;
 144:Src/tim.c     ****   sConfigOC.OCNPolarity = TIM_OCNPOLARITY_HIGH;
 145:Src/tim.c     ****   sConfigOC.OCFastMode = TIM_OCFAST_DISABLE;
 146:Src/tim.c     ****   sConfigOC.OCIdleState = TIM_OCIDLESTATE_RESET;
 147:Src/tim.c     ****   sConfigOC.OCNIdleState = TIM_OCNIDLESTATE_RESET;
 148:Src/tim.c     ****   if (HAL_TIM_PWM_ConfigChannel(&htim8, &sConfigOC, TIM_CHANNEL_1) != HAL_OK)
 149:Src/tim.c     ****   {
 150:Src/tim.c     ****     Error_Handler();
 151:Src/tim.c     ****   }
 152:Src/tim.c     ****   if (HAL_TIM_PWM_ConfigChannel(&htim8, &sConfigOC, TIM_CHANNEL_2) != HAL_OK)
 153:Src/tim.c     ****   {
 154:Src/tim.c     ****     Error_Handler();
 155:Src/tim.c     ****   }
 156:Src/tim.c     ****   if (HAL_TIM_PWM_ConfigChannel(&htim8, &sConfigOC, TIM_CHANNEL_3) != HAL_OK)
 157:Src/tim.c     ****   {
 158:Src/tim.c     ****     Error_Handler();
 159:Src/tim.c     ****   }
 160:Src/tim.c     ****   sConfigOC.OCMode = TIM_OCMODE_PWM2;
 161:Src/tim.c     ****   if (HAL_TIM_OC_ConfigChannel(&htim8, &sConfigOC, TIM_CHANNEL_4) != HAL_OK)
 162:Src/tim.c     ****   {
 163:Src/tim.c     ****     Error_Handler();
 164:Src/tim.c     ****   }
 165:Src/tim.c     ****   sBreakDeadTimeConfig.OffStateRunMode = TIM_OSSR_DISABLE;
 166:Src/tim.c     ****   sBreakDeadTimeConfig.OffStateIDLEMode = TIM_OSSI_DISABLE;
 167:Src/tim.c     ****   sBreakDeadTimeConfig.LockLevel = TIM_LOCKLEVEL_OFF;
ARM GAS  C:\Users\ncer\AppData\Local\Temp\cctmLQN9.s 			page 10


 168:Src/tim.c     ****   sBreakDeadTimeConfig.DeadTime = 0;
 169:Src/tim.c     ****   sBreakDeadTimeConfig.BreakState = TIM_BREAK_DISABLE;
 170:Src/tim.c     ****   sBreakDeadTimeConfig.BreakPolarity = TIM_BREAKPOLARITY_HIGH;
 171:Src/tim.c     ****   sBreakDeadTimeConfig.AutomaticOutput = TIM_AUTOMATICOUTPUT_DISABLE;
 172:Src/tim.c     ****   if (HAL_TIMEx_ConfigBreakDeadTime(&htim8, &sBreakDeadTimeConfig) != HAL_OK)
 173:Src/tim.c     ****   {
 174:Src/tim.c     ****     Error_Handler();
 175:Src/tim.c     ****   }
 176:Src/tim.c     ****   HAL_TIM_MspPostInit(&htim8);
 177:Src/tim.c     **** 
 178:Src/tim.c     **** }
 179:Src/tim.c     **** 
 180:Src/tim.c     **** void HAL_TIM_Encoder_MspInit(TIM_HandleTypeDef* tim_encoderHandle)
 181:Src/tim.c     **** {
 348              		.loc 1 181 1 is_stmt 1 view -0
 349              		.cfi_startproc
 350              		@ args = 0, pretend = 0, frame = 32
 351              		@ frame_needed = 0, uses_anonymous_args = 0
 352              		.loc 1 181 1 is_stmt 0 view .LVU103
 353 0000 00B5     		push	{lr}
 354              	.LCFI12:
 355              		.cfi_def_cfa_offset 4
 356              		.cfi_offset 14, -4
 357 0002 89B0     		sub	sp, sp, #36
 358              	.LCFI13:
 359              		.cfi_def_cfa_offset 40
 182:Src/tim.c     **** 
 183:Src/tim.c     ****   GPIO_InitTypeDef GPIO_InitStruct = {0};
 360              		.loc 1 183 3 is_stmt 1 view .LVU104
 361              		.loc 1 183 20 is_stmt 0 view .LVU105
 362 0004 0023     		movs	r3, #0
 363 0006 0393     		str	r3, [sp, #12]
 364 0008 0493     		str	r3, [sp, #16]
 365 000a 0593     		str	r3, [sp, #20]
 366 000c 0693     		str	r3, [sp, #24]
 367 000e 0793     		str	r3, [sp, #28]
 184:Src/tim.c     ****   if(tim_encoderHandle->Instance==TIM4)
 368              		.loc 1 184 3 is_stmt 1 view .LVU106
 369              		.loc 1 184 23 is_stmt 0 view .LVU107
 370 0010 0268     		ldr	r2, [r0]
 371              		.loc 1 184 5 view .LVU108
 372 0012 144B     		ldr	r3, .L29
 373 0014 9A42     		cmp	r2, r3
 374 0016 02D0     		beq	.L28
 375              	.LVL13:
 376              	.L25:
 185:Src/tim.c     ****   {
 186:Src/tim.c     ****   /* USER CODE BEGIN TIM4_MspInit 0 */
 187:Src/tim.c     **** 
 188:Src/tim.c     ****   /* USER CODE END TIM4_MspInit 0 */
 189:Src/tim.c     ****     /* TIM4 clock enable */
 190:Src/tim.c     ****     __HAL_RCC_TIM4_CLK_ENABLE();
 191:Src/tim.c     ****   
 192:Src/tim.c     ****     __HAL_RCC_GPIOB_CLK_ENABLE();
 193:Src/tim.c     ****     /**TIM4 GPIO Configuration    
 194:Src/tim.c     ****     PB6     ------> TIM4_CH1
 195:Src/tim.c     ****     PB7     ------> TIM4_CH2 
ARM GAS  C:\Users\ncer\AppData\Local\Temp\cctmLQN9.s 			page 11


 196:Src/tim.c     ****     */
 197:Src/tim.c     ****     GPIO_InitStruct.Pin = GPIO_PIN_6|GPIO_PIN_7;
 198:Src/tim.c     ****     GPIO_InitStruct.Mode = GPIO_MODE_AF_PP;
 199:Src/tim.c     ****     GPIO_InitStruct.Pull = GPIO_NOPULL;
 200:Src/tim.c     ****     GPIO_InitStruct.Speed = GPIO_SPEED_FREQ_LOW;
 201:Src/tim.c     ****     GPIO_InitStruct.Alternate = GPIO_AF2_TIM4;
 202:Src/tim.c     ****     HAL_GPIO_Init(GPIOB, &GPIO_InitStruct);
 203:Src/tim.c     **** 
 204:Src/tim.c     ****   /* USER CODE BEGIN TIM4_MspInit 1 */
 205:Src/tim.c     **** 
 206:Src/tim.c     ****   /* USER CODE END TIM4_MspInit 1 */
 207:Src/tim.c     ****   }
 208:Src/tim.c     **** }
 377              		.loc 1 208 1 view .LVU109
 378 0018 09B0     		add	sp, sp, #36
 379              	.LCFI14:
 380              		.cfi_remember_state
 381              		.cfi_def_cfa_offset 4
 382              		@ sp needed
 383 001a 5DF804FB 		ldr	pc, [sp], #4
 384              	.LVL14:
 385              	.L28:
 386              	.LCFI15:
 387              		.cfi_restore_state
 190:Src/tim.c     ****   
 388              		.loc 1 190 5 is_stmt 1 view .LVU110
 389              	.LBB2:
 190:Src/tim.c     ****   
 390              		.loc 1 190 5 view .LVU111
 391 001e 0022     		movs	r2, #0
 392 0020 0192     		str	r2, [sp, #4]
 190:Src/tim.c     ****   
 393              		.loc 1 190 5 view .LVU112
 394 0022 03F50C33 		add	r3, r3, #143360
 395 0026 196C     		ldr	r1, [r3, #64]
 396 0028 41F00401 		orr	r1, r1, #4
 397 002c 1964     		str	r1, [r3, #64]
 190:Src/tim.c     ****   
 398              		.loc 1 190 5 view .LVU113
 399 002e 196C     		ldr	r1, [r3, #64]
 400 0030 01F00401 		and	r1, r1, #4
 401 0034 0191     		str	r1, [sp, #4]
 190:Src/tim.c     ****   
 402              		.loc 1 190 5 view .LVU114
 403 0036 0199     		ldr	r1, [sp, #4]
 404              	.LBE2:
 190:Src/tim.c     ****   
 405              		.loc 1 190 5 view .LVU115
 192:Src/tim.c     ****     /**TIM4 GPIO Configuration    
 406              		.loc 1 192 5 view .LVU116
 407              	.LBB3:
 192:Src/tim.c     ****     /**TIM4 GPIO Configuration    
 408              		.loc 1 192 5 view .LVU117
 409 0038 0292     		str	r2, [sp, #8]
 192:Src/tim.c     ****     /**TIM4 GPIO Configuration    
 410              		.loc 1 192 5 view .LVU118
 411 003a 196B     		ldr	r1, [r3, #48]
ARM GAS  C:\Users\ncer\AppData\Local\Temp\cctmLQN9.s 			page 12


 412 003c 41F00201 		orr	r1, r1, #2
 413 0040 1963     		str	r1, [r3, #48]
 192:Src/tim.c     ****     /**TIM4 GPIO Configuration    
 414              		.loc 1 192 5 view .LVU119
 415 0042 1B6B     		ldr	r3, [r3, #48]
 416 0044 03F00203 		and	r3, r3, #2
 417 0048 0293     		str	r3, [sp, #8]
 192:Src/tim.c     ****     /**TIM4 GPIO Configuration    
 418              		.loc 1 192 5 view .LVU120
 419 004a 029B     		ldr	r3, [sp, #8]
 420              	.LBE3:
 192:Src/tim.c     ****     /**TIM4 GPIO Configuration    
 421              		.loc 1 192 5 view .LVU121
 197:Src/tim.c     ****     GPIO_InitStruct.Mode = GPIO_MODE_AF_PP;
 422              		.loc 1 197 5 view .LVU122
 197:Src/tim.c     ****     GPIO_InitStruct.Mode = GPIO_MODE_AF_PP;
 423              		.loc 1 197 25 is_stmt 0 view .LVU123
 424 004c C023     		movs	r3, #192
 425 004e 0393     		str	r3, [sp, #12]
 198:Src/tim.c     ****     GPIO_InitStruct.Pull = GPIO_NOPULL;
 426              		.loc 1 198 5 is_stmt 1 view .LVU124
 198:Src/tim.c     ****     GPIO_InitStruct.Pull = GPIO_NOPULL;
 427              		.loc 1 198 26 is_stmt 0 view .LVU125
 428 0050 0223     		movs	r3, #2
 429 0052 0493     		str	r3, [sp, #16]
 199:Src/tim.c     ****     GPIO_InitStruct.Speed = GPIO_SPEED_FREQ_LOW;
 430              		.loc 1 199 5 is_stmt 1 view .LVU126
 199:Src/tim.c     ****     GPIO_InitStruct.Speed = GPIO_SPEED_FREQ_LOW;
 431              		.loc 1 199 26 is_stmt 0 view .LVU127
 432 0054 0592     		str	r2, [sp, #20]
 200:Src/tim.c     ****     GPIO_InitStruct.Alternate = GPIO_AF2_TIM4;
 433              		.loc 1 200 5 is_stmt 1 view .LVU128
 200:Src/tim.c     ****     GPIO_InitStruct.Alternate = GPIO_AF2_TIM4;
 434              		.loc 1 200 27 is_stmt 0 view .LVU129
 435 0056 0692     		str	r2, [sp, #24]
 201:Src/tim.c     ****     HAL_GPIO_Init(GPIOB, &GPIO_InitStruct);
 436              		.loc 1 201 5 is_stmt 1 view .LVU130
 201:Src/tim.c     ****     HAL_GPIO_Init(GPIOB, &GPIO_InitStruct);
 437              		.loc 1 201 31 is_stmt 0 view .LVU131
 438 0058 0793     		str	r3, [sp, #28]
 202:Src/tim.c     **** 
 439              		.loc 1 202 5 is_stmt 1 view .LVU132
 440 005a 03A9     		add	r1, sp, #12
 441 005c 0248     		ldr	r0, .L29+4
 442              	.LVL15:
 202:Src/tim.c     **** 
 443              		.loc 1 202 5 is_stmt 0 view .LVU133
 444 005e FFF7FEFF 		bl	HAL_GPIO_Init
 445              	.LVL16:
 446              		.loc 1 208 1 view .LVU134
 447 0062 D9E7     		b	.L25
 448              	.L30:
 449              		.align	2
 450              	.L29:
 451 0064 00080040 		.word	1073743872
 452 0068 00040240 		.word	1073873920
 453              		.cfi_endproc
ARM GAS  C:\Users\ncer\AppData\Local\Temp\cctmLQN9.s 			page 13


 454              	.LFE134:
 456              		.section	.text.HAL_TIM_Base_MspInit,"ax",%progbits
 457              		.align	1
 458              		.global	HAL_TIM_Base_MspInit
 459              		.syntax unified
 460              		.thumb
 461              		.thumb_func
 462              		.fpu fpv4-sp-d16
 464              	HAL_TIM_Base_MspInit:
 465              	.LVL17:
 466              	.LFB135:
 209:Src/tim.c     **** 
 210:Src/tim.c     **** void HAL_TIM_Base_MspInit(TIM_HandleTypeDef* tim_baseHandle)
 211:Src/tim.c     **** {
 467              		.loc 1 211 1 is_stmt 1 view -0
 468              		.cfi_startproc
 469              		@ args = 0, pretend = 0, frame = 8
 470              		@ frame_needed = 0, uses_anonymous_args = 0
 471              		.loc 1 211 1 is_stmt 0 view .LVU136
 472 0000 00B5     		push	{lr}
 473              	.LCFI16:
 474              		.cfi_def_cfa_offset 4
 475              		.cfi_offset 14, -4
 476 0002 83B0     		sub	sp, sp, #12
 477              	.LCFI17:
 478              		.cfi_def_cfa_offset 16
 212:Src/tim.c     **** 
 213:Src/tim.c     ****   if(tim_baseHandle->Instance==TIM6)
 479              		.loc 1 213 3 is_stmt 1 view .LVU137
 480              		.loc 1 213 20 is_stmt 0 view .LVU138
 481 0004 0368     		ldr	r3, [r0]
 482              		.loc 1 213 5 view .LVU139
 483 0006 184A     		ldr	r2, .L37
 484 0008 9342     		cmp	r3, r2
 485 000a 05D0     		beq	.L35
 214:Src/tim.c     ****   {
 215:Src/tim.c     ****   /* USER CODE BEGIN TIM6_MspInit 0 */
 216:Src/tim.c     **** 
 217:Src/tim.c     ****   /* USER CODE END TIM6_MspInit 0 */
 218:Src/tim.c     ****     /* TIM6 clock enable */
 219:Src/tim.c     ****     __HAL_RCC_TIM6_CLK_ENABLE();
 220:Src/tim.c     **** 
 221:Src/tim.c     ****     /* TIM6 interrupt Init */
 222:Src/tim.c     ****     HAL_NVIC_SetPriority(TIM6_DAC_IRQn, 0, 0);
 223:Src/tim.c     ****     HAL_NVIC_EnableIRQ(TIM6_DAC_IRQn);
 224:Src/tim.c     ****   /* USER CODE BEGIN TIM6_MspInit 1 */
 225:Src/tim.c     **** 
 226:Src/tim.c     ****   /* USER CODE END TIM6_MspInit 1 */
 227:Src/tim.c     ****   }
 228:Src/tim.c     ****   else if(tim_baseHandle->Instance==TIM7)
 486              		.loc 1 228 8 is_stmt 1 view .LVU140
 487              		.loc 1 228 10 is_stmt 0 view .LVU141
 488 000c 174A     		ldr	r2, .L37+4
 489 000e 9342     		cmp	r3, r2
 490 0010 16D0     		beq	.L36
 491              	.LVL18:
 492              	.L31:
ARM GAS  C:\Users\ncer\AppData\Local\Temp\cctmLQN9.s 			page 14


 229:Src/tim.c     ****   {
 230:Src/tim.c     ****   /* USER CODE BEGIN TIM7_MspInit 0 */
 231:Src/tim.c     **** 
 232:Src/tim.c     ****   /* USER CODE END TIM7_MspInit 0 */
 233:Src/tim.c     ****     /* TIM7 clock enable */
 234:Src/tim.c     ****     __HAL_RCC_TIM7_CLK_ENABLE();
 235:Src/tim.c     **** 
 236:Src/tim.c     ****     /* TIM7 interrupt Init */
 237:Src/tim.c     ****     HAL_NVIC_SetPriority(TIM7_IRQn, 0, 0);
 238:Src/tim.c     ****     HAL_NVIC_EnableIRQ(TIM7_IRQn);
 239:Src/tim.c     ****   /* USER CODE BEGIN TIM7_MspInit 1 */
 240:Src/tim.c     **** 
 241:Src/tim.c     ****   /* USER CODE END TIM7_MspInit 1 */
 242:Src/tim.c     ****   }
 243:Src/tim.c     **** }
 493              		.loc 1 243 1 view .LVU142
 494 0012 03B0     		add	sp, sp, #12
 495              	.LCFI18:
 496              		.cfi_remember_state
 497              		.cfi_def_cfa_offset 4
 498              		@ sp needed
 499 0014 5DF804FB 		ldr	pc, [sp], #4
 500              	.LVL19:
 501              	.L35:
 502              	.LCFI19:
 503              		.cfi_restore_state
 219:Src/tim.c     **** 
 504              		.loc 1 219 5 is_stmt 1 view .LVU143
 505              	.LBB4:
 219:Src/tim.c     **** 
 506              		.loc 1 219 5 view .LVU144
 507 0018 0021     		movs	r1, #0
 508 001a 0091     		str	r1, [sp]
 219:Src/tim.c     **** 
 509              		.loc 1 219 5 view .LVU145
 510 001c 144B     		ldr	r3, .L37+8
 511 001e 1A6C     		ldr	r2, [r3, #64]
 512 0020 42F01002 		orr	r2, r2, #16
 513 0024 1A64     		str	r2, [r3, #64]
 219:Src/tim.c     **** 
 514              		.loc 1 219 5 view .LVU146
 515 0026 1B6C     		ldr	r3, [r3, #64]
 516 0028 03F01003 		and	r3, r3, #16
 517 002c 0093     		str	r3, [sp]
 219:Src/tim.c     **** 
 518              		.loc 1 219 5 view .LVU147
 519 002e 009B     		ldr	r3, [sp]
 520              	.LBE4:
 219:Src/tim.c     **** 
 521              		.loc 1 219 5 view .LVU148
 222:Src/tim.c     ****     HAL_NVIC_EnableIRQ(TIM6_DAC_IRQn);
 522              		.loc 1 222 5 view .LVU149
 523 0030 0A46     		mov	r2, r1
 524 0032 3620     		movs	r0, #54
 525              	.LVL20:
 222:Src/tim.c     ****     HAL_NVIC_EnableIRQ(TIM6_DAC_IRQn);
 526              		.loc 1 222 5 is_stmt 0 view .LVU150
ARM GAS  C:\Users\ncer\AppData\Local\Temp\cctmLQN9.s 			page 15


 527 0034 FFF7FEFF 		bl	HAL_NVIC_SetPriority
 528              	.LVL21:
 223:Src/tim.c     ****   /* USER CODE BEGIN TIM6_MspInit 1 */
 529              		.loc 1 223 5 is_stmt 1 view .LVU151
 530 0038 3620     		movs	r0, #54
 531 003a FFF7FEFF 		bl	HAL_NVIC_EnableIRQ
 532              	.LVL22:
 533 003e E8E7     		b	.L31
 534              	.LVL23:
 535              	.L36:
 234:Src/tim.c     **** 
 536              		.loc 1 234 5 view .LVU152
 537              	.LBB5:
 234:Src/tim.c     **** 
 538              		.loc 1 234 5 view .LVU153
 539 0040 0021     		movs	r1, #0
 540 0042 0191     		str	r1, [sp, #4]
 234:Src/tim.c     **** 
 541              		.loc 1 234 5 view .LVU154
 542 0044 0A4B     		ldr	r3, .L37+8
 543 0046 1A6C     		ldr	r2, [r3, #64]
 544 0048 42F02002 		orr	r2, r2, #32
 545 004c 1A64     		str	r2, [r3, #64]
 234:Src/tim.c     **** 
 546              		.loc 1 234 5 view .LVU155
 547 004e 1B6C     		ldr	r3, [r3, #64]
 548 0050 03F02003 		and	r3, r3, #32
 549 0054 0193     		str	r3, [sp, #4]
 234:Src/tim.c     **** 
 550              		.loc 1 234 5 view .LVU156
 551 0056 019B     		ldr	r3, [sp, #4]
 552              	.LBE5:
 234:Src/tim.c     **** 
 553              		.loc 1 234 5 view .LVU157
 237:Src/tim.c     ****     HAL_NVIC_EnableIRQ(TIM7_IRQn);
 554              		.loc 1 237 5 view .LVU158
 555 0058 0A46     		mov	r2, r1
 556 005a 3720     		movs	r0, #55
 557              	.LVL24:
 237:Src/tim.c     ****     HAL_NVIC_EnableIRQ(TIM7_IRQn);
 558              		.loc 1 237 5 is_stmt 0 view .LVU159
 559 005c FFF7FEFF 		bl	HAL_NVIC_SetPriority
 560              	.LVL25:
 238:Src/tim.c     ****   /* USER CODE BEGIN TIM7_MspInit 1 */
 561              		.loc 1 238 5 is_stmt 1 view .LVU160
 562 0060 3720     		movs	r0, #55
 563 0062 FFF7FEFF 		bl	HAL_NVIC_EnableIRQ
 564              	.LVL26:
 565              		.loc 1 243 1 is_stmt 0 view .LVU161
 566 0066 D4E7     		b	.L31
 567              	.L38:
 568              		.align	2
 569              	.L37:
 570 0068 00100040 		.word	1073745920
 571 006c 00140040 		.word	1073746944
 572 0070 00380240 		.word	1073887232
 573              		.cfi_endproc
ARM GAS  C:\Users\ncer\AppData\Local\Temp\cctmLQN9.s 			page 16


 574              	.LFE135:
 576              		.section	.text.HAL_TIM_PWM_MspInit,"ax",%progbits
 577              		.align	1
 578              		.global	HAL_TIM_PWM_MspInit
 579              		.syntax unified
 580              		.thumb
 581              		.thumb_func
 582              		.fpu fpv4-sp-d16
 584              	HAL_TIM_PWM_MspInit:
 585              	.LVL27:
 586              	.LFB136:
 244:Src/tim.c     **** 
 245:Src/tim.c     **** void HAL_TIM_PWM_MspInit(TIM_HandleTypeDef* tim_pwmHandle)
 246:Src/tim.c     **** {
 587              		.loc 1 246 1 is_stmt 1 view -0
 588              		.cfi_startproc
 589              		@ args = 0, pretend = 0, frame = 8
 590              		@ frame_needed = 0, uses_anonymous_args = 0
 247:Src/tim.c     **** 
 248:Src/tim.c     ****   if(tim_pwmHandle->Instance==TIM8)
 591              		.loc 1 248 3 view .LVU163
 592              		.loc 1 248 19 is_stmt 0 view .LVU164
 593 0000 0268     		ldr	r2, [r0]
 594              		.loc 1 248 5 view .LVU165
 595 0002 0E4B     		ldr	r3, .L46
 596 0004 9A42     		cmp	r2, r3
 597 0006 00D0     		beq	.L45
 598 0008 7047     		bx	lr
 599              	.L45:
 246:Src/tim.c     **** 
 600              		.loc 1 246 1 view .LVU166
 601 000a 00B5     		push	{lr}
 602              	.LCFI20:
 603              		.cfi_def_cfa_offset 4
 604              		.cfi_offset 14, -4
 605 000c 83B0     		sub	sp, sp, #12
 606              	.LCFI21:
 607              		.cfi_def_cfa_offset 16
 249:Src/tim.c     ****   {
 250:Src/tim.c     ****   /* USER CODE BEGIN TIM8_MspInit 0 */
 251:Src/tim.c     **** 
 252:Src/tim.c     ****   /* USER CODE END TIM8_MspInit 0 */
 253:Src/tim.c     ****     /* TIM8 clock enable */
 254:Src/tim.c     ****     __HAL_RCC_TIM8_CLK_ENABLE();
 608              		.loc 1 254 5 is_stmt 1 view .LVU167
 609              	.LBB6:
 610              		.loc 1 254 5 view .LVU168
 611 000e 0021     		movs	r1, #0
 612 0010 0191     		str	r1, [sp, #4]
 613              		.loc 1 254 5 view .LVU169
 614 0012 03F59A33 		add	r3, r3, #78848
 615 0016 5A6C     		ldr	r2, [r3, #68]
 616 0018 42F00202 		orr	r2, r2, #2
 617 001c 5A64     		str	r2, [r3, #68]
 618              		.loc 1 254 5 view .LVU170
 619 001e 5B6C     		ldr	r3, [r3, #68]
 620 0020 03F00203 		and	r3, r3, #2
ARM GAS  C:\Users\ncer\AppData\Local\Temp\cctmLQN9.s 			page 17


 621 0024 0193     		str	r3, [sp, #4]
 622              		.loc 1 254 5 view .LVU171
 623 0026 019B     		ldr	r3, [sp, #4]
 624              	.LBE6:
 625              		.loc 1 254 5 view .LVU172
 255:Src/tim.c     **** 
 256:Src/tim.c     ****     /* TIM8 interrupt Init */
 257:Src/tim.c     ****     HAL_NVIC_SetPriority(TIM8_UP_TIM13_IRQn, 0, 0);
 626              		.loc 1 257 5 view .LVU173
 627 0028 0A46     		mov	r2, r1
 628 002a 2C20     		movs	r0, #44
 629              	.LVL28:
 630              		.loc 1 257 5 is_stmt 0 view .LVU174
 631 002c FFF7FEFF 		bl	HAL_NVIC_SetPriority
 632              	.LVL29:
 258:Src/tim.c     ****     HAL_NVIC_EnableIRQ(TIM8_UP_TIM13_IRQn);
 633              		.loc 1 258 5 is_stmt 1 view .LVU175
 634 0030 2C20     		movs	r0, #44
 635 0032 FFF7FEFF 		bl	HAL_NVIC_EnableIRQ
 636              	.LVL30:
 259:Src/tim.c     ****   /* USER CODE BEGIN TIM8_MspInit 1 */
 260:Src/tim.c     **** 
 261:Src/tim.c     ****   /* USER CODE END TIM8_MspInit 1 */
 262:Src/tim.c     ****   }
 263:Src/tim.c     **** }
 637              		.loc 1 263 1 is_stmt 0 view .LVU176
 638 0036 03B0     		add	sp, sp, #12
 639              	.LCFI22:
 640              		.cfi_def_cfa_offset 4
 641              		@ sp needed
 642 0038 5DF804FB 		ldr	pc, [sp], #4
 643              	.L47:
 644              		.align	2
 645              	.L46:
 646 003c 00040140 		.word	1073808384
 647              		.cfi_endproc
 648              	.LFE136:
 650              		.section	.text.HAL_TIM_MspPostInit,"ax",%progbits
 651              		.align	1
 652              		.global	HAL_TIM_MspPostInit
 653              		.syntax unified
 654              		.thumb
 655              		.thumb_func
 656              		.fpu fpv4-sp-d16
 658              	HAL_TIM_MspPostInit:
 659              	.LVL31:
 660              	.LFB137:
 264:Src/tim.c     **** void HAL_TIM_MspPostInit(TIM_HandleTypeDef* timHandle)
 265:Src/tim.c     **** {
 661              		.loc 1 265 1 is_stmt 1 view -0
 662              		.cfi_startproc
 663              		@ args = 0, pretend = 0, frame = 32
 664              		@ frame_needed = 0, uses_anonymous_args = 0
 665              		.loc 1 265 1 is_stmt 0 view .LVU178
 666 0000 70B5     		push	{r4, r5, r6, lr}
 667              	.LCFI23:
 668              		.cfi_def_cfa_offset 16
ARM GAS  C:\Users\ncer\AppData\Local\Temp\cctmLQN9.s 			page 18


 669              		.cfi_offset 4, -16
 670              		.cfi_offset 5, -12
 671              		.cfi_offset 6, -8
 672              		.cfi_offset 14, -4
 673 0002 88B0     		sub	sp, sp, #32
 674              	.LCFI24:
 675              		.cfi_def_cfa_offset 48
 266:Src/tim.c     **** 
 267:Src/tim.c     ****   GPIO_InitTypeDef GPIO_InitStruct = {0};
 676              		.loc 1 267 3 is_stmt 1 view .LVU179
 677              		.loc 1 267 20 is_stmt 0 view .LVU180
 678 0004 0023     		movs	r3, #0
 679 0006 0393     		str	r3, [sp, #12]
 680 0008 0493     		str	r3, [sp, #16]
 681 000a 0593     		str	r3, [sp, #20]
 682 000c 0693     		str	r3, [sp, #24]
 683 000e 0793     		str	r3, [sp, #28]
 268:Src/tim.c     ****   if(timHandle->Instance==TIM8)
 684              		.loc 1 268 3 is_stmt 1 view .LVU181
 685              		.loc 1 268 15 is_stmt 0 view .LVU182
 686 0010 0268     		ldr	r2, [r0]
 687              		.loc 1 268 5 view .LVU183
 688 0012 03F18043 		add	r3, r3, #1073741824
 689 0016 03F58233 		add	r3, r3, #66560
 690 001a 9A42     		cmp	r2, r3
 691 001c 01D0     		beq	.L51
 692              	.LVL32:
 693              	.L48:
 269:Src/tim.c     ****   {
 270:Src/tim.c     ****   /* USER CODE BEGIN TIM8_MspPostInit 0 */
 271:Src/tim.c     **** 
 272:Src/tim.c     ****   /* USER CODE END TIM8_MspPostInit 0 */
 273:Src/tim.c     ****   
 274:Src/tim.c     ****     __HAL_RCC_GPIOA_CLK_ENABLE();
 275:Src/tim.c     ****     __HAL_RCC_GPIOB_CLK_ENABLE();
 276:Src/tim.c     ****     __HAL_RCC_GPIOC_CLK_ENABLE();
 277:Src/tim.c     ****     /**TIM8 GPIO Configuration    
 278:Src/tim.c     ****     PA7     ------> TIM8_CH1N
 279:Src/tim.c     ****     PB0     ------> TIM8_CH2N
 280:Src/tim.c     ****     PB1     ------> TIM8_CH3N
 281:Src/tim.c     ****     PC6     ------> TIM8_CH1
 282:Src/tim.c     ****     PC7     ------> TIM8_CH2
 283:Src/tim.c     ****     PC8     ------> TIM8_CH3 
 284:Src/tim.c     ****     */
 285:Src/tim.c     ****     GPIO_InitStruct.Pin = GPIO_PIN_7;
 286:Src/tim.c     ****     GPIO_InitStruct.Mode = GPIO_MODE_AF_PP;
 287:Src/tim.c     ****     GPIO_InitStruct.Pull = GPIO_NOPULL;
 288:Src/tim.c     ****     GPIO_InitStruct.Speed = GPIO_SPEED_FREQ_LOW;
 289:Src/tim.c     ****     GPIO_InitStruct.Alternate = GPIO_AF3_TIM8;
 290:Src/tim.c     ****     HAL_GPIO_Init(GPIOA, &GPIO_InitStruct);
 291:Src/tim.c     **** 
 292:Src/tim.c     ****     GPIO_InitStruct.Pin = GPIO_PIN_0|GPIO_PIN_1;
 293:Src/tim.c     ****     GPIO_InitStruct.Mode = GPIO_MODE_AF_PP;
 294:Src/tim.c     ****     GPIO_InitStruct.Pull = GPIO_NOPULL;
 295:Src/tim.c     ****     GPIO_InitStruct.Speed = GPIO_SPEED_FREQ_LOW;
 296:Src/tim.c     ****     GPIO_InitStruct.Alternate = GPIO_AF3_TIM8;
 297:Src/tim.c     ****     HAL_GPIO_Init(GPIOB, &GPIO_InitStruct);
ARM GAS  C:\Users\ncer\AppData\Local\Temp\cctmLQN9.s 			page 19


 298:Src/tim.c     **** 
 299:Src/tim.c     ****     GPIO_InitStruct.Pin = GPIO_PIN_6|GPIO_PIN_7|GPIO_PIN_8;
 300:Src/tim.c     ****     GPIO_InitStruct.Mode = GPIO_MODE_AF_PP;
 301:Src/tim.c     ****     GPIO_InitStruct.Pull = GPIO_NOPULL;
 302:Src/tim.c     ****     GPIO_InitStruct.Speed = GPIO_SPEED_FREQ_LOW;
 303:Src/tim.c     ****     GPIO_InitStruct.Alternate = GPIO_AF3_TIM8;
 304:Src/tim.c     ****     HAL_GPIO_Init(GPIOC, &GPIO_InitStruct);
 305:Src/tim.c     **** 
 306:Src/tim.c     ****   /* USER CODE BEGIN TIM8_MspPostInit 1 */
 307:Src/tim.c     **** 
 308:Src/tim.c     ****   /* USER CODE END TIM8_MspPostInit 1 */
 309:Src/tim.c     ****   }
 310:Src/tim.c     **** 
 311:Src/tim.c     **** }
 694              		.loc 1 311 1 view .LVU184
 695 001e 08B0     		add	sp, sp, #32
 696              	.LCFI25:
 697              		.cfi_remember_state
 698              		.cfi_def_cfa_offset 16
 699              		@ sp needed
 700 0020 70BD     		pop	{r4, r5, r6, pc}
 701              	.LVL33:
 702              	.L51:
 703              	.LCFI26:
 704              		.cfi_restore_state
 274:Src/tim.c     ****     __HAL_RCC_GPIOB_CLK_ENABLE();
 705              		.loc 1 274 5 is_stmt 1 view .LVU185
 706              	.LBB7:
 274:Src/tim.c     ****     __HAL_RCC_GPIOB_CLK_ENABLE();
 707              		.loc 1 274 5 view .LVU186
 708 0022 0024     		movs	r4, #0
 709 0024 0094     		str	r4, [sp]
 274:Src/tim.c     ****     __HAL_RCC_GPIOB_CLK_ENABLE();
 710              		.loc 1 274 5 view .LVU187
 711 0026 03F59A33 		add	r3, r3, #78848
 712 002a 1A6B     		ldr	r2, [r3, #48]
 713 002c 42F00102 		orr	r2, r2, #1
 714 0030 1A63     		str	r2, [r3, #48]
 274:Src/tim.c     ****     __HAL_RCC_GPIOB_CLK_ENABLE();
 715              		.loc 1 274 5 view .LVU188
 716 0032 1A6B     		ldr	r2, [r3, #48]
 717 0034 02F00102 		and	r2, r2, #1
 718 0038 0092     		str	r2, [sp]
 274:Src/tim.c     ****     __HAL_RCC_GPIOB_CLK_ENABLE();
 719              		.loc 1 274 5 view .LVU189
 720 003a 009A     		ldr	r2, [sp]
 721              	.LBE7:
 274:Src/tim.c     ****     __HAL_RCC_GPIOB_CLK_ENABLE();
 722              		.loc 1 274 5 view .LVU190
 275:Src/tim.c     ****     __HAL_RCC_GPIOC_CLK_ENABLE();
 723              		.loc 1 275 5 view .LVU191
 724              	.LBB8:
 275:Src/tim.c     ****     __HAL_RCC_GPIOC_CLK_ENABLE();
 725              		.loc 1 275 5 view .LVU192
 726 003c 0194     		str	r4, [sp, #4]
 275:Src/tim.c     ****     __HAL_RCC_GPIOC_CLK_ENABLE();
 727              		.loc 1 275 5 view .LVU193
ARM GAS  C:\Users\ncer\AppData\Local\Temp\cctmLQN9.s 			page 20


 728 003e 1A6B     		ldr	r2, [r3, #48]
 729 0040 42F00202 		orr	r2, r2, #2
 730 0044 1A63     		str	r2, [r3, #48]
 275:Src/tim.c     ****     __HAL_RCC_GPIOC_CLK_ENABLE();
 731              		.loc 1 275 5 view .LVU194
 732 0046 1A6B     		ldr	r2, [r3, #48]
 733 0048 02F00202 		and	r2, r2, #2
 734 004c 0192     		str	r2, [sp, #4]
 275:Src/tim.c     ****     __HAL_RCC_GPIOC_CLK_ENABLE();
 735              		.loc 1 275 5 view .LVU195
 736 004e 019A     		ldr	r2, [sp, #4]
 737              	.LBE8:
 275:Src/tim.c     ****     __HAL_RCC_GPIOC_CLK_ENABLE();
 738              		.loc 1 275 5 view .LVU196
 276:Src/tim.c     ****     /**TIM8 GPIO Configuration    
 739              		.loc 1 276 5 view .LVU197
 740              	.LBB9:
 276:Src/tim.c     ****     /**TIM8 GPIO Configuration    
 741              		.loc 1 276 5 view .LVU198
 742 0050 0294     		str	r4, [sp, #8]
 276:Src/tim.c     ****     /**TIM8 GPIO Configuration    
 743              		.loc 1 276 5 view .LVU199
 744 0052 1A6B     		ldr	r2, [r3, #48]
 745 0054 42F00402 		orr	r2, r2, #4
 746 0058 1A63     		str	r2, [r3, #48]
 276:Src/tim.c     ****     /**TIM8 GPIO Configuration    
 747              		.loc 1 276 5 view .LVU200
 748 005a 1B6B     		ldr	r3, [r3, #48]
 749 005c 03F00403 		and	r3, r3, #4
 750 0060 0293     		str	r3, [sp, #8]
 276:Src/tim.c     ****     /**TIM8 GPIO Configuration    
 751              		.loc 1 276 5 view .LVU201
 752 0062 029B     		ldr	r3, [sp, #8]
 753              	.LBE9:
 276:Src/tim.c     ****     /**TIM8 GPIO Configuration    
 754              		.loc 1 276 5 view .LVU202
 285:Src/tim.c     ****     GPIO_InitStruct.Mode = GPIO_MODE_AF_PP;
 755              		.loc 1 285 5 view .LVU203
 285:Src/tim.c     ****     GPIO_InitStruct.Mode = GPIO_MODE_AF_PP;
 756              		.loc 1 285 25 is_stmt 0 view .LVU204
 757 0064 8023     		movs	r3, #128
 758 0066 0393     		str	r3, [sp, #12]
 286:Src/tim.c     ****     GPIO_InitStruct.Pull = GPIO_NOPULL;
 759              		.loc 1 286 5 is_stmt 1 view .LVU205
 286:Src/tim.c     ****     GPIO_InitStruct.Pull = GPIO_NOPULL;
 760              		.loc 1 286 26 is_stmt 0 view .LVU206
 761 0068 0226     		movs	r6, #2
 762 006a 0496     		str	r6, [sp, #16]
 287:Src/tim.c     ****     GPIO_InitStruct.Speed = GPIO_SPEED_FREQ_LOW;
 763              		.loc 1 287 5 is_stmt 1 view .LVU207
 287:Src/tim.c     ****     GPIO_InitStruct.Speed = GPIO_SPEED_FREQ_LOW;
 764              		.loc 1 287 26 is_stmt 0 view .LVU208
 765 006c 0594     		str	r4, [sp, #20]
 288:Src/tim.c     ****     GPIO_InitStruct.Alternate = GPIO_AF3_TIM8;
 766              		.loc 1 288 5 is_stmt 1 view .LVU209
 288:Src/tim.c     ****     GPIO_InitStruct.Alternate = GPIO_AF3_TIM8;
 767              		.loc 1 288 27 is_stmt 0 view .LVU210
ARM GAS  C:\Users\ncer\AppData\Local\Temp\cctmLQN9.s 			page 21


 768 006e 0694     		str	r4, [sp, #24]
 289:Src/tim.c     ****     HAL_GPIO_Init(GPIOA, &GPIO_InitStruct);
 769              		.loc 1 289 5 is_stmt 1 view .LVU211
 289:Src/tim.c     ****     HAL_GPIO_Init(GPIOA, &GPIO_InitStruct);
 770              		.loc 1 289 31 is_stmt 0 view .LVU212
 771 0070 0325     		movs	r5, #3
 772 0072 0795     		str	r5, [sp, #28]
 290:Src/tim.c     **** 
 773              		.loc 1 290 5 is_stmt 1 view .LVU213
 774 0074 03A9     		add	r1, sp, #12
 775 0076 0C48     		ldr	r0, .L52
 776              	.LVL34:
 290:Src/tim.c     **** 
 777              		.loc 1 290 5 is_stmt 0 view .LVU214
 778 0078 FFF7FEFF 		bl	HAL_GPIO_Init
 779              	.LVL35:
 292:Src/tim.c     ****     GPIO_InitStruct.Mode = GPIO_MODE_AF_PP;
 780              		.loc 1 292 5 is_stmt 1 view .LVU215
 292:Src/tim.c     ****     GPIO_InitStruct.Mode = GPIO_MODE_AF_PP;
 781              		.loc 1 292 25 is_stmt 0 view .LVU216
 782 007c 0395     		str	r5, [sp, #12]
 293:Src/tim.c     ****     GPIO_InitStruct.Pull = GPIO_NOPULL;
 783              		.loc 1 293 5 is_stmt 1 view .LVU217
 293:Src/tim.c     ****     GPIO_InitStruct.Pull = GPIO_NOPULL;
 784              		.loc 1 293 26 is_stmt 0 view .LVU218
 785 007e 0496     		str	r6, [sp, #16]
 294:Src/tim.c     ****     GPIO_InitStruct.Speed = GPIO_SPEED_FREQ_LOW;
 786              		.loc 1 294 5 is_stmt 1 view .LVU219
 294:Src/tim.c     ****     GPIO_InitStruct.Speed = GPIO_SPEED_FREQ_LOW;
 787              		.loc 1 294 26 is_stmt 0 view .LVU220
 788 0080 0594     		str	r4, [sp, #20]
 295:Src/tim.c     ****     GPIO_InitStruct.Alternate = GPIO_AF3_TIM8;
 789              		.loc 1 295 5 is_stmt 1 view .LVU221
 295:Src/tim.c     ****     GPIO_InitStruct.Alternate = GPIO_AF3_TIM8;
 790              		.loc 1 295 27 is_stmt 0 view .LVU222
 791 0082 0694     		str	r4, [sp, #24]
 296:Src/tim.c     ****     HAL_GPIO_Init(GPIOB, &GPIO_InitStruct);
 792              		.loc 1 296 5 is_stmt 1 view .LVU223
 296:Src/tim.c     ****     HAL_GPIO_Init(GPIOB, &GPIO_InitStruct);
 793              		.loc 1 296 31 is_stmt 0 view .LVU224
 794 0084 0795     		str	r5, [sp, #28]
 297:Src/tim.c     **** 
 795              		.loc 1 297 5 is_stmt 1 view .LVU225
 796 0086 03A9     		add	r1, sp, #12
 797 0088 0848     		ldr	r0, .L52+4
 798 008a FFF7FEFF 		bl	HAL_GPIO_Init
 799              	.LVL36:
 299:Src/tim.c     ****     GPIO_InitStruct.Mode = GPIO_MODE_AF_PP;
 800              		.loc 1 299 5 view .LVU226
 299:Src/tim.c     ****     GPIO_InitStruct.Mode = GPIO_MODE_AF_PP;
 801              		.loc 1 299 25 is_stmt 0 view .LVU227
 802 008e 4FF4E073 		mov	r3, #448
 803 0092 0393     		str	r3, [sp, #12]
 300:Src/tim.c     ****     GPIO_InitStruct.Pull = GPIO_NOPULL;
 804              		.loc 1 300 5 is_stmt 1 view .LVU228
 300:Src/tim.c     ****     GPIO_InitStruct.Pull = GPIO_NOPULL;
 805              		.loc 1 300 26 is_stmt 0 view .LVU229
ARM GAS  C:\Users\ncer\AppData\Local\Temp\cctmLQN9.s 			page 22


 806 0094 0496     		str	r6, [sp, #16]
 301:Src/tim.c     ****     GPIO_InitStruct.Speed = GPIO_SPEED_FREQ_LOW;
 807              		.loc 1 301 5 is_stmt 1 view .LVU230
 301:Src/tim.c     ****     GPIO_InitStruct.Speed = GPIO_SPEED_FREQ_LOW;
 808              		.loc 1 301 26 is_stmt 0 view .LVU231
 809 0096 0594     		str	r4, [sp, #20]
 302:Src/tim.c     ****     GPIO_InitStruct.Alternate = GPIO_AF3_TIM8;
 810              		.loc 1 302 5 is_stmt 1 view .LVU232
 302:Src/tim.c     ****     GPIO_InitStruct.Alternate = GPIO_AF3_TIM8;
 811              		.loc 1 302 27 is_stmt 0 view .LVU233
 812 0098 0694     		str	r4, [sp, #24]
 303:Src/tim.c     ****     HAL_GPIO_Init(GPIOC, &GPIO_InitStruct);
 813              		.loc 1 303 5 is_stmt 1 view .LVU234
 303:Src/tim.c     ****     HAL_GPIO_Init(GPIOC, &GPIO_InitStruct);
 814              		.loc 1 303 31 is_stmt 0 view .LVU235
 815 009a 0795     		str	r5, [sp, #28]
 304:Src/tim.c     **** 
 816              		.loc 1 304 5 is_stmt 1 view .LVU236
 817 009c 03A9     		add	r1, sp, #12
 818 009e 0448     		ldr	r0, .L52+8
 819 00a0 FFF7FEFF 		bl	HAL_GPIO_Init
 820              	.LVL37:
 821              		.loc 1 311 1 is_stmt 0 view .LVU237
 822 00a4 BBE7     		b	.L48
 823              	.L53:
 824 00a6 00BF     		.align	2
 825              	.L52:
 826 00a8 00000240 		.word	1073872896
 827 00ac 00040240 		.word	1073873920
 828 00b0 00080240 		.word	1073874944
 829              		.cfi_endproc
 830              	.LFE137:
 832              		.section	.text.MX_TIM8_Init,"ax",%progbits
 833              		.align	1
 834              		.global	MX_TIM8_Init
 835              		.syntax unified
 836              		.thumb
 837              		.thumb_func
 838              		.fpu fpv4-sp-d16
 840              	MX_TIM8_Init:
 841              	.LFB133:
 111:Src/tim.c     ****   TIM_MasterConfigTypeDef sMasterConfig = {0};
 842              		.loc 1 111 1 is_stmt 1 view -0
 843              		.cfi_startproc
 844              		@ args = 0, pretend = 0, frame = 72
 845              		@ frame_needed = 0, uses_anonymous_args = 0
 846 0000 30B5     		push	{r4, r5, lr}
 847              	.LCFI27:
 848              		.cfi_def_cfa_offset 12
 849              		.cfi_offset 4, -12
 850              		.cfi_offset 5, -8
 851              		.cfi_offset 14, -4
 852 0002 93B0     		sub	sp, sp, #76
 853              	.LCFI28:
 854              		.cfi_def_cfa_offset 88
 112:Src/tim.c     ****   TIM_OC_InitTypeDef sConfigOC = {0};
 855              		.loc 1 112 3 view .LVU239
ARM GAS  C:\Users\ncer\AppData\Local\Temp\cctmLQN9.s 			page 23


 112:Src/tim.c     ****   TIM_OC_InitTypeDef sConfigOC = {0};
 856              		.loc 1 112 27 is_stmt 0 view .LVU240
 857 0004 0024     		movs	r4, #0
 858 0006 1094     		str	r4, [sp, #64]
 859 0008 1194     		str	r4, [sp, #68]
 113:Src/tim.c     ****   TIM_BreakDeadTimeConfigTypeDef sBreakDeadTimeConfig = {0};
 860              		.loc 1 113 3 is_stmt 1 view .LVU241
 113:Src/tim.c     ****   TIM_BreakDeadTimeConfigTypeDef sBreakDeadTimeConfig = {0};
 861              		.loc 1 113 22 is_stmt 0 view .LVU242
 862 000a 0994     		str	r4, [sp, #36]
 863 000c 0A94     		str	r4, [sp, #40]
 864 000e 0B94     		str	r4, [sp, #44]
 865 0010 0C94     		str	r4, [sp, #48]
 866 0012 0D94     		str	r4, [sp, #52]
 867 0014 0E94     		str	r4, [sp, #56]
 868 0016 0F94     		str	r4, [sp, #60]
 114:Src/tim.c     **** 
 869              		.loc 1 114 3 is_stmt 1 view .LVU243
 114:Src/tim.c     **** 
 870              		.loc 1 114 34 is_stmt 0 view .LVU244
 871 0018 2025     		movs	r5, #32
 872 001a 2A46     		mov	r2, r5
 873 001c 2146     		mov	r1, r4
 874 001e 01A8     		add	r0, sp, #4
 875 0020 FFF7FEFF 		bl	memset
 876              	.LVL38:
 116:Src/tim.c     ****   htim8.Init.Prescaler = 0;
 877              		.loc 1 116 3 is_stmt 1 view .LVU245
 116:Src/tim.c     ****   htim8.Init.Prescaler = 0;
 878              		.loc 1 116 18 is_stmt 0 view .LVU246
 879 0024 3648     		ldr	r0, .L72
 880 0026 374B     		ldr	r3, .L72+4
 881 0028 0360     		str	r3, [r0]
 117:Src/tim.c     ****   htim8.Init.CounterMode = TIM_COUNTERMODE_CENTERALIGNED1;
 882              		.loc 1 117 3 is_stmt 1 view .LVU247
 117:Src/tim.c     ****   htim8.Init.CounterMode = TIM_COUNTERMODE_CENTERALIGNED1;
 883              		.loc 1 117 24 is_stmt 0 view .LVU248
 884 002a 4460     		str	r4, [r0, #4]
 118:Src/tim.c     ****   htim8.Init.Period = 3360;   // 25K   168M/25K/2;
 885              		.loc 1 118 3 is_stmt 1 view .LVU249
 118:Src/tim.c     ****   htim8.Init.Period = 3360;   // 25K   168M/25K/2;
 886              		.loc 1 118 26 is_stmt 0 view .LVU250
 887 002c 8560     		str	r5, [r0, #8]
 119:Src/tim.c     ****   htim8.Init.ClockDivision = TIM_CLOCKDIVISION_DIV1;
 888              		.loc 1 119 3 is_stmt 1 view .LVU251
 119:Src/tim.c     ****   htim8.Init.ClockDivision = TIM_CLOCKDIVISION_DIV1;
 889              		.loc 1 119 21 is_stmt 0 view .LVU252
 890 002e 4FF45263 		mov	r3, #3360
 891 0032 C360     		str	r3, [r0, #12]
 120:Src/tim.c     ****   htim8.Init.RepetitionCounter = 1;
 892              		.loc 1 120 3 is_stmt 1 view .LVU253
 120:Src/tim.c     ****   htim8.Init.RepetitionCounter = 1;
 893              		.loc 1 120 28 is_stmt 0 view .LVU254
 894 0034 0461     		str	r4, [r0, #16]
 121:Src/tim.c     ****   htim8.Init.AutoReloadPreload = TIM_AUTORELOAD_PRELOAD_DISABLE;
 895              		.loc 1 121 3 is_stmt 1 view .LVU255
 121:Src/tim.c     ****   htim8.Init.AutoReloadPreload = TIM_AUTORELOAD_PRELOAD_DISABLE;
ARM GAS  C:\Users\ncer\AppData\Local\Temp\cctmLQN9.s 			page 24


 896              		.loc 1 121 32 is_stmt 0 view .LVU256
 897 0036 0123     		movs	r3, #1
 898 0038 4361     		str	r3, [r0, #20]
 122:Src/tim.c     ****   if (HAL_TIM_PWM_Init(&htim8) != HAL_OK)
 899              		.loc 1 122 3 is_stmt 1 view .LVU257
 122:Src/tim.c     ****   if (HAL_TIM_PWM_Init(&htim8) != HAL_OK)
 900              		.loc 1 122 32 is_stmt 0 view .LVU258
 901 003a 8461     		str	r4, [r0, #24]
 123:Src/tim.c     ****   {
 902              		.loc 1 123 3 is_stmt 1 view .LVU259
 123:Src/tim.c     ****   {
 903              		.loc 1 123 7 is_stmt 0 view .LVU260
 904 003c FFF7FEFF 		bl	HAL_TIM_PWM_Init
 905              	.LVL39:
 123:Src/tim.c     ****   {
 906              		.loc 1 123 6 view .LVU261
 907 0040 0028     		cmp	r0, #0
 908 0042 45D1     		bne	.L64
 909              	.L55:
 127:Src/tim.c     ****   {
 910              		.loc 1 127 3 is_stmt 1 view .LVU262
 127:Src/tim.c     ****   {
 911              		.loc 1 127 7 is_stmt 0 view .LVU263
 912 0044 2E48     		ldr	r0, .L72
 913 0046 FFF7FEFF 		bl	HAL_TIM_OC_Init
 914              	.LVL40:
 127:Src/tim.c     ****   {
 915              		.loc 1 127 6 view .LVU264
 916 004a 0028     		cmp	r0, #0
 917 004c 43D1     		bne	.L65
 918              	.L56:
 131:Src/tim.c     ****   sMasterConfig.MasterSlaveMode = TIM_MASTERSLAVEMODE_DISABLE;
 919              		.loc 1 131 3 is_stmt 1 view .LVU265
 131:Src/tim.c     ****   sMasterConfig.MasterSlaveMode = TIM_MASTERSLAVEMODE_DISABLE;
 920              		.loc 1 131 37 is_stmt 0 view .LVU266
 921 004e 7023     		movs	r3, #112
 922 0050 1093     		str	r3, [sp, #64]
 132:Src/tim.c     ****   if (HAL_TIMEx_MasterConfigSynchronization(&htim8, &sMasterConfig) != HAL_OK)
 923              		.loc 1 132 3 is_stmt 1 view .LVU267
 132:Src/tim.c     ****   if (HAL_TIMEx_MasterConfigSynchronization(&htim8, &sMasterConfig) != HAL_OK)
 924              		.loc 1 132 33 is_stmt 0 view .LVU268
 925 0052 0023     		movs	r3, #0
 926 0054 1193     		str	r3, [sp, #68]
 133:Src/tim.c     ****   {
 927              		.loc 1 133 3 is_stmt 1 view .LVU269
 133:Src/tim.c     ****   {
 928              		.loc 1 133 7 is_stmt 0 view .LVU270
 929 0056 10A9     		add	r1, sp, #64
 930 0058 2948     		ldr	r0, .L72
 931 005a FFF7FEFF 		bl	HAL_TIMEx_MasterConfigSynchronization
 932              	.LVL41:
 133:Src/tim.c     ****   {
 933              		.loc 1 133 6 view .LVU271
 934 005e 0028     		cmp	r0, #0
 935 0060 3CD1     		bne	.L66
 936              	.L57:
 141:Src/tim.c     ****   sConfigOC.Pulse = 0;
ARM GAS  C:\Users\ncer\AppData\Local\Temp\cctmLQN9.s 			page 25


 937              		.loc 1 141 3 is_stmt 1 view .LVU272
 141:Src/tim.c     ****   sConfigOC.Pulse = 0;
 938              		.loc 1 141 20 is_stmt 0 view .LVU273
 939 0062 6023     		movs	r3, #96
 940 0064 0993     		str	r3, [sp, #36]
 142:Src/tim.c     ****   sConfigOC.OCPolarity = TIM_OCPOLARITY_HIGH;
 941              		.loc 1 142 3 is_stmt 1 view .LVU274
 142:Src/tim.c     ****   sConfigOC.OCPolarity = TIM_OCPOLARITY_HIGH;
 942              		.loc 1 142 19 is_stmt 0 view .LVU275
 943 0066 0022     		movs	r2, #0
 944 0068 0A92     		str	r2, [sp, #40]
 143:Src/tim.c     ****   sConfigOC.OCNPolarity = TIM_OCNPOLARITY_HIGH;
 945              		.loc 1 143 3 is_stmt 1 view .LVU276
 143:Src/tim.c     ****   sConfigOC.OCNPolarity = TIM_OCNPOLARITY_HIGH;
 946              		.loc 1 143 24 is_stmt 0 view .LVU277
 947 006a 0B92     		str	r2, [sp, #44]
 144:Src/tim.c     ****   sConfigOC.OCFastMode = TIM_OCFAST_DISABLE;
 948              		.loc 1 144 3 is_stmt 1 view .LVU278
 144:Src/tim.c     ****   sConfigOC.OCFastMode = TIM_OCFAST_DISABLE;
 949              		.loc 1 144 25 is_stmt 0 view .LVU279
 950 006c 0C92     		str	r2, [sp, #48]
 145:Src/tim.c     ****   sConfigOC.OCIdleState = TIM_OCIDLESTATE_RESET;
 951              		.loc 1 145 3 is_stmt 1 view .LVU280
 145:Src/tim.c     ****   sConfigOC.OCIdleState = TIM_OCIDLESTATE_RESET;
 952              		.loc 1 145 24 is_stmt 0 view .LVU281
 953 006e 0D92     		str	r2, [sp, #52]
 146:Src/tim.c     ****   sConfigOC.OCNIdleState = TIM_OCNIDLESTATE_RESET;
 954              		.loc 1 146 3 is_stmt 1 view .LVU282
 146:Src/tim.c     ****   sConfigOC.OCNIdleState = TIM_OCNIDLESTATE_RESET;
 955              		.loc 1 146 25 is_stmt 0 view .LVU283
 956 0070 0E92     		str	r2, [sp, #56]
 147:Src/tim.c     ****   if (HAL_TIM_PWM_ConfigChannel(&htim8, &sConfigOC, TIM_CHANNEL_1) != HAL_OK)
 957              		.loc 1 147 3 is_stmt 1 view .LVU284
 147:Src/tim.c     ****   if (HAL_TIM_PWM_ConfigChannel(&htim8, &sConfigOC, TIM_CHANNEL_1) != HAL_OK)
 958              		.loc 1 147 26 is_stmt 0 view .LVU285
 959 0072 0F92     		str	r2, [sp, #60]
 148:Src/tim.c     ****   {
 960              		.loc 1 148 3 is_stmt 1 view .LVU286
 148:Src/tim.c     ****   {
 961              		.loc 1 148 7 is_stmt 0 view .LVU287
 962 0074 09A9     		add	r1, sp, #36
 963 0076 2248     		ldr	r0, .L72
 964 0078 FFF7FEFF 		bl	HAL_TIM_PWM_ConfigChannel
 965              	.LVL42:
 148:Src/tim.c     ****   {
 966              		.loc 1 148 6 view .LVU288
 967 007c 0028     		cmp	r0, #0
 968 007e 30D1     		bne	.L67
 969              	.L58:
 152:Src/tim.c     ****   {
 970              		.loc 1 152 3 is_stmt 1 view .LVU289
 152:Src/tim.c     ****   {
 971              		.loc 1 152 7 is_stmt 0 view .LVU290
 972 0080 0422     		movs	r2, #4
 973 0082 09A9     		add	r1, sp, #36
 974 0084 1E48     		ldr	r0, .L72
 975 0086 FFF7FEFF 		bl	HAL_TIM_PWM_ConfigChannel
ARM GAS  C:\Users\ncer\AppData\Local\Temp\cctmLQN9.s 			page 26


 976              	.LVL43:
 152:Src/tim.c     ****   {
 977              		.loc 1 152 6 view .LVU291
 978 008a 68BB     		cbnz	r0, .L68
 979              	.L59:
 156:Src/tim.c     ****   {
 980              		.loc 1 156 3 is_stmt 1 view .LVU292
 156:Src/tim.c     ****   {
 981              		.loc 1 156 7 is_stmt 0 view .LVU293
 982 008c 0822     		movs	r2, #8
 983 008e 09A9     		add	r1, sp, #36
 984 0090 1B48     		ldr	r0, .L72
 985 0092 FFF7FEFF 		bl	HAL_TIM_PWM_ConfigChannel
 986              	.LVL44:
 156:Src/tim.c     ****   {
 987              		.loc 1 156 6 view .LVU294
 988 0096 50BB     		cbnz	r0, .L69
 989              	.L60:
 160:Src/tim.c     ****   if (HAL_TIM_OC_ConfigChannel(&htim8, &sConfigOC, TIM_CHANNEL_4) != HAL_OK)
 990              		.loc 1 160 3 is_stmt 1 view .LVU295
 160:Src/tim.c     ****   if (HAL_TIM_OC_ConfigChannel(&htim8, &sConfigOC, TIM_CHANNEL_4) != HAL_OK)
 991              		.loc 1 160 20 is_stmt 0 view .LVU296
 992 0098 7023     		movs	r3, #112
 993 009a 0993     		str	r3, [sp, #36]
 161:Src/tim.c     ****   {
 994              		.loc 1 161 3 is_stmt 1 view .LVU297
 161:Src/tim.c     ****   {
 995              		.loc 1 161 7 is_stmt 0 view .LVU298
 996 009c 0C22     		movs	r2, #12
 997 009e 09A9     		add	r1, sp, #36
 998 00a0 1748     		ldr	r0, .L72
 999 00a2 FFF7FEFF 		bl	HAL_TIM_OC_ConfigChannel
 1000              	.LVL45:
 161:Src/tim.c     ****   {
 1001              		.loc 1 161 6 view .LVU299
 1002 00a6 28BB     		cbnz	r0, .L70
 1003              	.L61:
 165:Src/tim.c     ****   sBreakDeadTimeConfig.OffStateIDLEMode = TIM_OSSI_DISABLE;
 1004              		.loc 1 165 3 is_stmt 1 view .LVU300
 165:Src/tim.c     ****   sBreakDeadTimeConfig.OffStateIDLEMode = TIM_OSSI_DISABLE;
 1005              		.loc 1 165 40 is_stmt 0 view .LVU301
 1006 00a8 0023     		movs	r3, #0
 1007 00aa 0193     		str	r3, [sp, #4]
 166:Src/tim.c     ****   sBreakDeadTimeConfig.LockLevel = TIM_LOCKLEVEL_OFF;
 1008              		.loc 1 166 3 is_stmt 1 view .LVU302
 166:Src/tim.c     ****   sBreakDeadTimeConfig.LockLevel = TIM_LOCKLEVEL_OFF;
 1009              		.loc 1 166 41 is_stmt 0 view .LVU303
 1010 00ac 0293     		str	r3, [sp, #8]
 167:Src/tim.c     ****   sBreakDeadTimeConfig.DeadTime = 0;
 1011              		.loc 1 167 3 is_stmt 1 view .LVU304
 167:Src/tim.c     ****   sBreakDeadTimeConfig.DeadTime = 0;
 1012              		.loc 1 167 34 is_stmt 0 view .LVU305
 1013 00ae 0393     		str	r3, [sp, #12]
 168:Src/tim.c     ****   sBreakDeadTimeConfig.BreakState = TIM_BREAK_DISABLE;
 1014              		.loc 1 168 3 is_stmt 1 view .LVU306
 168:Src/tim.c     ****   sBreakDeadTimeConfig.BreakState = TIM_BREAK_DISABLE;
 1015              		.loc 1 168 33 is_stmt 0 view .LVU307
ARM GAS  C:\Users\ncer\AppData\Local\Temp\cctmLQN9.s 			page 27


 1016 00b0 0493     		str	r3, [sp, #16]
 169:Src/tim.c     ****   sBreakDeadTimeConfig.BreakPolarity = TIM_BREAKPOLARITY_HIGH;
 1017              		.loc 1 169 3 is_stmt 1 view .LVU308
 169:Src/tim.c     ****   sBreakDeadTimeConfig.BreakPolarity = TIM_BREAKPOLARITY_HIGH;
 1018              		.loc 1 169 35 is_stmt 0 view .LVU309
 1019 00b2 0593     		str	r3, [sp, #20]
 170:Src/tim.c     ****   sBreakDeadTimeConfig.AutomaticOutput = TIM_AUTOMATICOUTPUT_DISABLE;
 1020              		.loc 1 170 3 is_stmt 1 view .LVU310
 170:Src/tim.c     ****   sBreakDeadTimeConfig.AutomaticOutput = TIM_AUTOMATICOUTPUT_DISABLE;
 1021              		.loc 1 170 38 is_stmt 0 view .LVU311
 1022 00b4 4FF40052 		mov	r2, #8192
 1023 00b8 0692     		str	r2, [sp, #24]
 171:Src/tim.c     ****   if (HAL_TIMEx_ConfigBreakDeadTime(&htim8, &sBreakDeadTimeConfig) != HAL_OK)
 1024              		.loc 1 171 3 is_stmt 1 view .LVU312
 171:Src/tim.c     ****   if (HAL_TIMEx_ConfigBreakDeadTime(&htim8, &sBreakDeadTimeConfig) != HAL_OK)
 1025              		.loc 1 171 40 is_stmt 0 view .LVU313
 1026 00ba 0893     		str	r3, [sp, #32]
 172:Src/tim.c     ****   {
 1027              		.loc 1 172 3 is_stmt 1 view .LVU314
 172:Src/tim.c     ****   {
 1028              		.loc 1 172 7 is_stmt 0 view .LVU315
 1029 00bc 01A9     		add	r1, sp, #4
 1030 00be 1048     		ldr	r0, .L72
 1031 00c0 FFF7FEFF 		bl	HAL_TIMEx_ConfigBreakDeadTime
 1032              	.LVL46:
 172:Src/tim.c     ****   {
 1033              		.loc 1 172 6 view .LVU316
 1034 00c4 C8B9     		cbnz	r0, .L71
 1035              	.L62:
 176:Src/tim.c     **** 
 1036              		.loc 1 176 3 is_stmt 1 view .LVU317
 1037 00c6 0E48     		ldr	r0, .L72
 1038 00c8 FFF7FEFF 		bl	HAL_TIM_MspPostInit
 1039              	.LVL47:
 178:Src/tim.c     **** 
 1040              		.loc 1 178 1 is_stmt 0 view .LVU318
 1041 00cc 13B0     		add	sp, sp, #76
 1042              	.LCFI29:
 1043              		.cfi_remember_state
 1044              		.cfi_def_cfa_offset 12
 1045              		@ sp needed
 1046 00ce 30BD     		pop	{r4, r5, pc}
 1047              	.L64:
 1048              	.LCFI30:
 1049              		.cfi_restore_state
 125:Src/tim.c     ****   }
 1050              		.loc 1 125 5 is_stmt 1 view .LVU319
 1051 00d0 FFF7FEFF 		bl	Error_Handler
 1052              	.LVL48:
 1053 00d4 B6E7     		b	.L55
 1054              	.L65:
 129:Src/tim.c     ****   }
 1055              		.loc 1 129 5 view .LVU320
 1056 00d6 FFF7FEFF 		bl	Error_Handler
 1057              	.LVL49:
 1058 00da B8E7     		b	.L56
 1059              	.L66:
ARM GAS  C:\Users\ncer\AppData\Local\Temp\cctmLQN9.s 			page 28


 135:Src/tim.c     ****   }
 1060              		.loc 1 135 5 view .LVU321
 1061 00dc FFF7FEFF 		bl	Error_Handler
 1062              	.LVL50:
 1063 00e0 BFE7     		b	.L57
 1064              	.L67:
 150:Src/tim.c     ****   }
 1065              		.loc 1 150 5 view .LVU322
 1066 00e2 FFF7FEFF 		bl	Error_Handler
 1067              	.LVL51:
 1068 00e6 CBE7     		b	.L58
 1069              	.L68:
 154:Src/tim.c     ****   }
 1070              		.loc 1 154 5 view .LVU323
 1071 00e8 FFF7FEFF 		bl	Error_Handler
 1072              	.LVL52:
 1073 00ec CEE7     		b	.L59
 1074              	.L69:
 158:Src/tim.c     ****   }
 1075              		.loc 1 158 5 view .LVU324
 1076 00ee FFF7FEFF 		bl	Error_Handler
 1077              	.LVL53:
 1078 00f2 D1E7     		b	.L60
 1079              	.L70:
 163:Src/tim.c     ****   }
 1080              		.loc 1 163 5 view .LVU325
 1081 00f4 FFF7FEFF 		bl	Error_Handler
 1082              	.LVL54:
 1083 00f8 D6E7     		b	.L61
 1084              	.L71:
 174:Src/tim.c     ****   }
 1085              		.loc 1 174 5 view .LVU326
 1086 00fa FFF7FEFF 		bl	Error_Handler
 1087              	.LVL55:
 1088 00fe E2E7     		b	.L62
 1089              	.L73:
 1090              		.align	2
 1091              	.L72:
 1092 0100 00000000 		.word	htim8
 1093 0104 00040140 		.word	1073808384
 1094              		.cfi_endproc
 1095              	.LFE133:
 1097              		.section	.text.HAL_TIM_Encoder_MspDeInit,"ax",%progbits
 1098              		.align	1
 1099              		.global	HAL_TIM_Encoder_MspDeInit
 1100              		.syntax unified
 1101              		.thumb
 1102              		.thumb_func
 1103              		.fpu fpv4-sp-d16
 1105              	HAL_TIM_Encoder_MspDeInit:
 1106              	.LVL56:
 1107              	.LFB138:
 312:Src/tim.c     **** 
 313:Src/tim.c     **** void HAL_TIM_Encoder_MspDeInit(TIM_HandleTypeDef* tim_encoderHandle)
 314:Src/tim.c     **** {
 1108              		.loc 1 314 1 view -0
 1109              		.cfi_startproc
ARM GAS  C:\Users\ncer\AppData\Local\Temp\cctmLQN9.s 			page 29


 1110              		@ args = 0, pretend = 0, frame = 0
 1111              		@ frame_needed = 0, uses_anonymous_args = 0
 1112              		.loc 1 314 1 is_stmt 0 view .LVU328
 1113 0000 08B5     		push	{r3, lr}
 1114              	.LCFI31:
 1115              		.cfi_def_cfa_offset 8
 1116              		.cfi_offset 3, -8
 1117              		.cfi_offset 14, -4
 315:Src/tim.c     **** 
 316:Src/tim.c     ****   if(tim_encoderHandle->Instance==TIM4)
 1118              		.loc 1 316 3 is_stmt 1 view .LVU329
 1119              		.loc 1 316 23 is_stmt 0 view .LVU330
 1120 0002 0268     		ldr	r2, [r0]
 1121              		.loc 1 316 5 view .LVU331
 1122 0004 064B     		ldr	r3, .L78
 1123 0006 9A42     		cmp	r2, r3
 1124 0008 00D0     		beq	.L77
 1125              	.LVL57:
 1126              	.L74:
 317:Src/tim.c     ****   {
 318:Src/tim.c     ****   /* USER CODE BEGIN TIM4_MspDeInit 0 */
 319:Src/tim.c     **** 
 320:Src/tim.c     ****   /* USER CODE END TIM4_MspDeInit 0 */
 321:Src/tim.c     ****     /* Peripheral clock disable */
 322:Src/tim.c     ****     __HAL_RCC_TIM4_CLK_DISABLE();
 323:Src/tim.c     ****   
 324:Src/tim.c     ****     /**TIM4 GPIO Configuration    
 325:Src/tim.c     ****     PB6     ------> TIM4_CH1
 326:Src/tim.c     ****     PB7     ------> TIM4_CH2 
 327:Src/tim.c     ****     */
 328:Src/tim.c     ****     HAL_GPIO_DeInit(GPIOB, GPIO_PIN_6|GPIO_PIN_7);
 329:Src/tim.c     **** 
 330:Src/tim.c     ****   /* USER CODE BEGIN TIM4_MspDeInit 1 */
 331:Src/tim.c     **** 
 332:Src/tim.c     ****   /* USER CODE END TIM4_MspDeInit 1 */
 333:Src/tim.c     ****   }
 334:Src/tim.c     **** }
 1127              		.loc 1 334 1 view .LVU332
 1128 000a 08BD     		pop	{r3, pc}
 1129              	.LVL58:
 1130              	.L77:
 322:Src/tim.c     ****   
 1131              		.loc 1 322 5 is_stmt 1 view .LVU333
 1132 000c 054A     		ldr	r2, .L78+4
 1133 000e 136C     		ldr	r3, [r2, #64]
 1134 0010 23F00403 		bic	r3, r3, #4
 1135 0014 1364     		str	r3, [r2, #64]
 328:Src/tim.c     **** 
 1136              		.loc 1 328 5 view .LVU334
 1137 0016 C021     		movs	r1, #192
 1138 0018 0348     		ldr	r0, .L78+8
 1139              	.LVL59:
 328:Src/tim.c     **** 
 1140              		.loc 1 328 5 is_stmt 0 view .LVU335
 1141 001a FFF7FEFF 		bl	HAL_GPIO_DeInit
 1142              	.LVL60:
 1143              		.loc 1 334 1 view .LVU336
ARM GAS  C:\Users\ncer\AppData\Local\Temp\cctmLQN9.s 			page 30


 1144 001e F4E7     		b	.L74
 1145              	.L79:
 1146              		.align	2
 1147              	.L78:
 1148 0020 00080040 		.word	1073743872
 1149 0024 00380240 		.word	1073887232
 1150 0028 00040240 		.word	1073873920
 1151              		.cfi_endproc
 1152              	.LFE138:
 1154              		.section	.text.HAL_TIM_Base_MspDeInit,"ax",%progbits
 1155              		.align	1
 1156              		.global	HAL_TIM_Base_MspDeInit
 1157              		.syntax unified
 1158              		.thumb
 1159              		.thumb_func
 1160              		.fpu fpv4-sp-d16
 1162              	HAL_TIM_Base_MspDeInit:
 1163              	.LVL61:
 1164              	.LFB139:
 335:Src/tim.c     **** 
 336:Src/tim.c     **** void HAL_TIM_Base_MspDeInit(TIM_HandleTypeDef* tim_baseHandle)
 337:Src/tim.c     **** {
 1165              		.loc 1 337 1 is_stmt 1 view -0
 1166              		.cfi_startproc
 1167              		@ args = 0, pretend = 0, frame = 0
 1168              		@ frame_needed = 0, uses_anonymous_args = 0
 1169              		.loc 1 337 1 is_stmt 0 view .LVU338
 1170 0000 08B5     		push	{r3, lr}
 1171              	.LCFI32:
 1172              		.cfi_def_cfa_offset 8
 1173              		.cfi_offset 3, -8
 1174              		.cfi_offset 14, -4
 338:Src/tim.c     **** 
 339:Src/tim.c     ****   if(tim_baseHandle->Instance==TIM6)
 1175              		.loc 1 339 3 is_stmt 1 view .LVU339
 1176              		.loc 1 339 20 is_stmt 0 view .LVU340
 1177 0002 0368     		ldr	r3, [r0]
 1178              		.loc 1 339 5 view .LVU341
 1179 0004 0D4A     		ldr	r2, .L86
 1180 0006 9342     		cmp	r3, r2
 1181 0008 03D0     		beq	.L84
 340:Src/tim.c     ****   {
 341:Src/tim.c     ****   /* USER CODE BEGIN TIM6_MspDeInit 0 */
 342:Src/tim.c     **** 
 343:Src/tim.c     ****   /* USER CODE END TIM6_MspDeInit 0 */
 344:Src/tim.c     ****     /* Peripheral clock disable */
 345:Src/tim.c     ****     __HAL_RCC_TIM6_CLK_DISABLE();
 346:Src/tim.c     **** 
 347:Src/tim.c     ****     /* TIM6 interrupt Deinit */
 348:Src/tim.c     ****     HAL_NVIC_DisableIRQ(TIM6_DAC_IRQn);
 349:Src/tim.c     ****   /* USER CODE BEGIN TIM6_MspDeInit 1 */
 350:Src/tim.c     **** 
 351:Src/tim.c     ****   /* USER CODE END TIM6_MspDeInit 1 */
 352:Src/tim.c     ****   }
 353:Src/tim.c     ****   else if(tim_baseHandle->Instance==TIM7)
 1182              		.loc 1 353 8 is_stmt 1 view .LVU342
 1183              		.loc 1 353 10 is_stmt 0 view .LVU343
ARM GAS  C:\Users\ncer\AppData\Local\Temp\cctmLQN9.s 			page 31


 1184 000a 0D4A     		ldr	r2, .L86+4
 1185 000c 9342     		cmp	r3, r2
 1186 000e 0AD0     		beq	.L85
 1187              	.LVL62:
 1188              	.L80:
 354:Src/tim.c     ****   {
 355:Src/tim.c     ****   /* USER CODE BEGIN TIM7_MspDeInit 0 */
 356:Src/tim.c     **** 
 357:Src/tim.c     ****   /* USER CODE END TIM7_MspDeInit 0 */
 358:Src/tim.c     ****     /* Peripheral clock disable */
 359:Src/tim.c     ****     __HAL_RCC_TIM7_CLK_DISABLE();
 360:Src/tim.c     **** 
 361:Src/tim.c     ****     /* TIM7 interrupt Deinit */
 362:Src/tim.c     ****     HAL_NVIC_DisableIRQ(TIM7_IRQn);
 363:Src/tim.c     ****   /* USER CODE BEGIN TIM7_MspDeInit 1 */
 364:Src/tim.c     **** 
 365:Src/tim.c     ****   /* USER CODE END TIM7_MspDeInit 1 */
 366:Src/tim.c     ****   }
 367:Src/tim.c     **** }
 1189              		.loc 1 367 1 view .LVU344
 1190 0010 08BD     		pop	{r3, pc}
 1191              	.LVL63:
 1192              	.L84:
 345:Src/tim.c     **** 
 1193              		.loc 1 345 5 is_stmt 1 view .LVU345
 1194 0012 02F50A32 		add	r2, r2, #141312
 1195 0016 136C     		ldr	r3, [r2, #64]
 1196 0018 23F01003 		bic	r3, r3, #16
 1197 001c 1364     		str	r3, [r2, #64]
 348:Src/tim.c     ****   /* USER CODE BEGIN TIM6_MspDeInit 1 */
 1198              		.loc 1 348 5 view .LVU346
 1199 001e 3620     		movs	r0, #54
 1200              	.LVL64:
 348:Src/tim.c     ****   /* USER CODE BEGIN TIM6_MspDeInit 1 */
 1201              		.loc 1 348 5 is_stmt 0 view .LVU347
 1202 0020 FFF7FEFF 		bl	HAL_NVIC_DisableIRQ
 1203              	.LVL65:
 1204 0024 F4E7     		b	.L80
 1205              	.LVL66:
 1206              	.L85:
 359:Src/tim.c     **** 
 1207              		.loc 1 359 5 is_stmt 1 view .LVU348
 1208 0026 02F50932 		add	r2, r2, #140288
 1209 002a 136C     		ldr	r3, [r2, #64]
 1210 002c 23F02003 		bic	r3, r3, #32
 1211 0030 1364     		str	r3, [r2, #64]
 362:Src/tim.c     ****   /* USER CODE BEGIN TIM7_MspDeInit 1 */
 1212              		.loc 1 362 5 view .LVU349
 1213 0032 3720     		movs	r0, #55
 1214              	.LVL67:
 362:Src/tim.c     ****   /* USER CODE BEGIN TIM7_MspDeInit 1 */
 1215              		.loc 1 362 5 is_stmt 0 view .LVU350
 1216 0034 FFF7FEFF 		bl	HAL_NVIC_DisableIRQ
 1217              	.LVL68:
 1218              		.loc 1 367 1 view .LVU351
 1219 0038 EAE7     		b	.L80
 1220              	.L87:
ARM GAS  C:\Users\ncer\AppData\Local\Temp\cctmLQN9.s 			page 32


 1221 003a 00BF     		.align	2
 1222              	.L86:
 1223 003c 00100040 		.word	1073745920
 1224 0040 00140040 		.word	1073746944
 1225              		.cfi_endproc
 1226              	.LFE139:
 1228              		.section	.text.HAL_TIM_PWM_MspDeInit,"ax",%progbits
 1229              		.align	1
 1230              		.global	HAL_TIM_PWM_MspDeInit
 1231              		.syntax unified
 1232              		.thumb
 1233              		.thumb_func
 1234              		.fpu fpv4-sp-d16
 1236              	HAL_TIM_PWM_MspDeInit:
 1237              	.LVL69:
 1238              	.LFB140:
 368:Src/tim.c     **** 
 369:Src/tim.c     **** void HAL_TIM_PWM_MspDeInit(TIM_HandleTypeDef* tim_pwmHandle)
 370:Src/tim.c     **** {
 1239              		.loc 1 370 1 is_stmt 1 view -0
 1240              		.cfi_startproc
 1241              		@ args = 0, pretend = 0, frame = 0
 1242              		@ frame_needed = 0, uses_anonymous_args = 0
 1243              		.loc 1 370 1 is_stmt 0 view .LVU353
 1244 0000 08B5     		push	{r3, lr}
 1245              	.LCFI33:
 1246              		.cfi_def_cfa_offset 8
 1247              		.cfi_offset 3, -8
 1248              		.cfi_offset 14, -4
 371:Src/tim.c     **** 
 372:Src/tim.c     ****   if(tim_pwmHandle->Instance==TIM8)
 1249              		.loc 1 372 3 is_stmt 1 view .LVU354
 1250              		.loc 1 372 19 is_stmt 0 view .LVU355
 1251 0002 0268     		ldr	r2, [r0]
 1252              		.loc 1 372 5 view .LVU356
 1253 0004 064B     		ldr	r3, .L92
 1254 0006 9A42     		cmp	r2, r3
 1255 0008 00D0     		beq	.L91
 1256              	.LVL70:
 1257              	.L88:
 373:Src/tim.c     ****   {
 374:Src/tim.c     ****   /* USER CODE BEGIN TIM8_MspDeInit 0 */
 375:Src/tim.c     **** 
 376:Src/tim.c     ****   /* USER CODE END TIM8_MspDeInit 0 */
 377:Src/tim.c     ****     /* Peripheral clock disable */
 378:Src/tim.c     ****     __HAL_RCC_TIM8_CLK_DISABLE();
 379:Src/tim.c     **** 
 380:Src/tim.c     ****     /* TIM8 interrupt Deinit */
 381:Src/tim.c     ****     HAL_NVIC_DisableIRQ(TIM8_UP_TIM13_IRQn);
 382:Src/tim.c     ****   /* USER CODE BEGIN TIM8_MspDeInit 1 */
 383:Src/tim.c     **** 
 384:Src/tim.c     ****   /* USER CODE END TIM8_MspDeInit 1 */
 385:Src/tim.c     ****   }
 386:Src/tim.c     **** } 
 1258              		.loc 1 386 1 view .LVU357
 1259 000a 08BD     		pop	{r3, pc}
 1260              	.LVL71:
ARM GAS  C:\Users\ncer\AppData\Local\Temp\cctmLQN9.s 			page 33


 1261              	.L91:
 378:Src/tim.c     **** 
 1262              		.loc 1 378 5 is_stmt 1 view .LVU358
 1263 000c 054A     		ldr	r2, .L92+4
 1264 000e 536C     		ldr	r3, [r2, #68]
 1265 0010 23F00203 		bic	r3, r3, #2
 1266 0014 5364     		str	r3, [r2, #68]
 381:Src/tim.c     ****   /* USER CODE BEGIN TIM8_MspDeInit 1 */
 1267              		.loc 1 381 5 view .LVU359
 1268 0016 2C20     		movs	r0, #44
 1269              	.LVL72:
 381:Src/tim.c     ****   /* USER CODE BEGIN TIM8_MspDeInit 1 */
 1270              		.loc 1 381 5 is_stmt 0 view .LVU360
 1271 0018 FFF7FEFF 		bl	HAL_NVIC_DisableIRQ
 1272              	.LVL73:
 1273              		.loc 1 386 1 view .LVU361
 1274 001c F5E7     		b	.L88
 1275              	.L93:
 1276 001e 00BF     		.align	2
 1277              	.L92:
 1278 0020 00040140 		.word	1073808384
 1279 0024 00380240 		.word	1073887232
 1280              		.cfi_endproc
 1281              	.LFE140:
 1283              		.comm	htim8,64,4
 1284              		.comm	htim7,64,4
 1285              		.comm	htim6,64,4
 1286              		.comm	htim4,64,4
 1287              		.text
 1288              	.Letext0:
 1289              		.file 2 "c:\\arm_gcc\\arm-none-eabi\\include\\machine\\_default_types.h"
 1290              		.file 3 "c:\\arm_gcc\\arm-none-eabi\\include\\sys\\_stdint.h"
 1291              		.file 4 "Drivers/CMSIS/Include/core_cm4.h"
 1292              		.file 5 "Drivers/CMSIS/Device/ST/STM32F4xx/Include/system_stm32f4xx.h"
 1293              		.file 6 "Drivers/CMSIS/Device/ST/STM32F4xx/Include/stm32f405xx.h"
 1294              		.file 7 "Drivers/STM32F4xx_HAL_Driver/Inc/stm32f4xx_hal_def.h"
 1295              		.file 8 "Drivers/STM32F4xx_HAL_Driver/Inc/stm32f4xx_hal_gpio.h"
 1296              		.file 9 "Drivers/STM32F4xx_HAL_Driver/Inc/stm32f4xx_hal_dma.h"
 1297              		.file 10 "Drivers/STM32F4xx_HAL_Driver/Inc/stm32f4xx_hal_tim.h"
 1298              		.file 11 "Inc/tim.h"
 1299              		.file 12 "Drivers/STM32F4xx_HAL_Driver/Inc/stm32f4xx_hal_cortex.h"
 1300              		.file 13 "Drivers/STM32F4xx_HAL_Driver/Inc/stm32f4xx_hal_tim_ex.h"
 1301              		.file 14 "Inc/main.h"
 1302              		.file 15 "<built-in>"
ARM GAS  C:\Users\ncer\AppData\Local\Temp\cctmLQN9.s 			page 34

