ARM GAS  C:\Users\ncer\AppData\Local\Temp\ccXRE5cP.s 			page 1


   1              		.cpu cortex-m4
   2              		.eabi_attribute 27, 1
   3              		.eabi_attribute 28, 1
   4              		.eabi_attribute 20, 1
   5              		.eabi_attribute 21, 1
   6              		.eabi_attribute 23, 3
   7              		.eabi_attribute 24, 1
   8              		.eabi_attribute 25, 1
   9              		.eabi_attribute 26, 1
  10              		.eabi_attribute 30, 1
  11              		.eabi_attribute 34, 1
  12              		.eabi_attribute 18, 4
  13              		.file	"usart.c"
  14              		.text
  15              	.Ltext0:
  16              		.cfi_sections	.debug_frame
  17              		.section	.text.MX_USART3_UART_Init,"ax",%progbits
  18              		.align	1
  19              		.global	MX_USART3_UART_Init
  20              		.arch armv7e-m
  21              		.syntax unified
  22              		.thumb
  23              		.thumb_func
  24              		.fpu fpv4-sp-d16
  26              	MX_USART3_UART_Init:
  27              	.LFB130:
  28              		.file 1 "Src/usart.c"
   1:Src/usart.c   **** /**
   2:Src/usart.c   ****   ******************************************************************************
   3:Src/usart.c   ****   * File Name          : USART.c
   4:Src/usart.c   ****   * Description        : This file provides code for the configuration
   5:Src/usart.c   ****   *                      of the USART instances.
   6:Src/usart.c   ****   ******************************************************************************
   7:Src/usart.c   ****   * @attention
   8:Src/usart.c   ****   *
   9:Src/usart.c   ****   * <h2><center>&copy; Copyright (c) 2019 STMicroelectronics.
  10:Src/usart.c   ****   * All rights reserved.</center></h2>
  11:Src/usart.c   ****   *
  12:Src/usart.c   ****   * This software component is licensed by ST under BSD 3-Clause license,
  13:Src/usart.c   ****   * the "License"; You may not use this file except in compliance with the
  14:Src/usart.c   ****   * License. You may obtain a copy of the License at:
  15:Src/usart.c   ****   *                        opensource.org/licenses/BSD-3-Clause
  16:Src/usart.c   ****   *
  17:Src/usart.c   ****   ******************************************************************************
  18:Src/usart.c   ****   */
  19:Src/usart.c   **** 
  20:Src/usart.c   **** /* Includes ------------------------------------------------------------------*/
  21:Src/usart.c   **** #include "usart.h"
  22:Src/usart.c   **** 
  23:Src/usart.c   **** /* USER CODE BEGIN 0 */
  24:Src/usart.c   **** #include "string.h"
  25:Src/usart.c   **** /* USER CODE END 0 */
  26:Src/usart.c   **** 
  27:Src/usart.c   **** UART_HandleTypeDef huart3;
  28:Src/usart.c   **** DMA_HandleTypeDef hdma_usart3_rx;
  29:Src/usart.c   **** DMA_HandleTypeDef hdma_usart3_tx;
  30:Src/usart.c   **** 
ARM GAS  C:\Users\ncer\AppData\Local\Temp\ccXRE5cP.s 			page 2


  31:Src/usart.c   **** /* USART3 init function */
  32:Src/usart.c   **** 
  33:Src/usart.c   **** void MX_USART3_UART_Init(void)
  34:Src/usart.c   **** {
  29              		.loc 1 34 1 view -0
  30              		.cfi_startproc
  31              		@ args = 0, pretend = 0, frame = 0
  32              		@ frame_needed = 0, uses_anonymous_args = 0
  33 0000 08B5     		push	{r3, lr}
  34              	.LCFI0:
  35              		.cfi_def_cfa_offset 8
  36              		.cfi_offset 3, -8
  37              		.cfi_offset 14, -4
  35:Src/usart.c   **** 
  36:Src/usart.c   ****   huart3.Instance = USART3;
  38              		.loc 1 36 3 view .LVU1
  39              		.loc 1 36 19 is_stmt 0 view .LVU2
  40 0002 0A48     		ldr	r0, .L5
  41 0004 0A4B     		ldr	r3, .L5+4
  42 0006 0360     		str	r3, [r0]
  37:Src/usart.c   ****   huart3.Init.BaudRate = 115200;
  43              		.loc 1 37 3 is_stmt 1 view .LVU3
  44              		.loc 1 37 24 is_stmt 0 view .LVU4
  45 0008 4FF4E133 		mov	r3, #115200
  46 000c 4360     		str	r3, [r0, #4]
  38:Src/usart.c   ****   huart3.Init.WordLength = UART_WORDLENGTH_8B;
  47              		.loc 1 38 3 is_stmt 1 view .LVU5
  48              		.loc 1 38 26 is_stmt 0 view .LVU6
  49 000e 0023     		movs	r3, #0
  50 0010 8360     		str	r3, [r0, #8]
  39:Src/usart.c   ****   huart3.Init.StopBits = UART_STOPBITS_1;
  51              		.loc 1 39 3 is_stmt 1 view .LVU7
  52              		.loc 1 39 24 is_stmt 0 view .LVU8
  53 0012 C360     		str	r3, [r0, #12]
  40:Src/usart.c   ****   huart3.Init.Parity = UART_PARITY_NONE;
  54              		.loc 1 40 3 is_stmt 1 view .LVU9
  55              		.loc 1 40 22 is_stmt 0 view .LVU10
  56 0014 0361     		str	r3, [r0, #16]
  41:Src/usart.c   ****   huart3.Init.Mode = UART_MODE_TX_RX;
  57              		.loc 1 41 3 is_stmt 1 view .LVU11
  58              		.loc 1 41 20 is_stmt 0 view .LVU12
  59 0016 0C22     		movs	r2, #12
  60 0018 4261     		str	r2, [r0, #20]
  42:Src/usart.c   ****   huart3.Init.HwFlowCtl = UART_HWCONTROL_NONE;
  61              		.loc 1 42 3 is_stmt 1 view .LVU13
  62              		.loc 1 42 25 is_stmt 0 view .LVU14
  63 001a 8361     		str	r3, [r0, #24]
  43:Src/usart.c   ****   huart3.Init.OverSampling = UART_OVERSAMPLING_16;
  64              		.loc 1 43 3 is_stmt 1 view .LVU15
  65              		.loc 1 43 28 is_stmt 0 view .LVU16
  66 001c C361     		str	r3, [r0, #28]
  44:Src/usart.c   ****   if (HAL_UART_Init(&huart3) != HAL_OK)
  67              		.loc 1 44 3 is_stmt 1 view .LVU17
  68              		.loc 1 44 7 is_stmt 0 view .LVU18
  69 001e FFF7FEFF 		bl	HAL_UART_Init
  70              	.LVL0:
  71              		.loc 1 44 6 view .LVU19
ARM GAS  C:\Users\ncer\AppData\Local\Temp\ccXRE5cP.s 			page 3


  72 0022 00B9     		cbnz	r0, .L4
  73              	.L1:
  45:Src/usart.c   ****   {
  46:Src/usart.c   ****     Error_Handler();
  47:Src/usart.c   ****   }
  48:Src/usart.c   **** 
  49:Src/usart.c   **** }
  74              		.loc 1 49 1 view .LVU20
  75 0024 08BD     		pop	{r3, pc}
  76              	.L4:
  46:Src/usart.c   ****   }
  77              		.loc 1 46 5 is_stmt 1 view .LVU21
  78 0026 FFF7FEFF 		bl	Error_Handler
  79              	.LVL1:
  80              		.loc 1 49 1 is_stmt 0 view .LVU22
  81 002a FBE7     		b	.L1
  82              	.L6:
  83              		.align	2
  84              	.L5:
  85 002c 00000000 		.word	huart3
  86 0030 00480040 		.word	1073760256
  87              		.cfi_endproc
  88              	.LFE130:
  90              		.section	.text.HAL_UART_MspInit,"ax",%progbits
  91              		.align	1
  92              		.global	HAL_UART_MspInit
  93              		.syntax unified
  94              		.thumb
  95              		.thumb_func
  96              		.fpu fpv4-sp-d16
  98              	HAL_UART_MspInit:
  99              	.LVL2:
 100              	.LFB131:
  50:Src/usart.c   **** 
  51:Src/usart.c   **** void HAL_UART_MspInit(UART_HandleTypeDef* uartHandle)
  52:Src/usart.c   **** {
 101              		.loc 1 52 1 is_stmt 1 view -0
 102              		.cfi_startproc
 103              		@ args = 0, pretend = 0, frame = 32
 104              		@ frame_needed = 0, uses_anonymous_args = 0
 105              		.loc 1 52 1 is_stmt 0 view .LVU24
 106 0000 30B5     		push	{r4, r5, lr}
 107              	.LCFI1:
 108              		.cfi_def_cfa_offset 12
 109              		.cfi_offset 4, -12
 110              		.cfi_offset 5, -8
 111              		.cfi_offset 14, -4
 112 0002 89B0     		sub	sp, sp, #36
 113              	.LCFI2:
 114              		.cfi_def_cfa_offset 48
  53:Src/usart.c   **** 
  54:Src/usart.c   ****   GPIO_InitTypeDef GPIO_InitStruct = {0};
 115              		.loc 1 54 3 is_stmt 1 view .LVU25
 116              		.loc 1 54 20 is_stmt 0 view .LVU26
 117 0004 0023     		movs	r3, #0
 118 0006 0393     		str	r3, [sp, #12]
 119 0008 0493     		str	r3, [sp, #16]
ARM GAS  C:\Users\ncer\AppData\Local\Temp\ccXRE5cP.s 			page 4


 120 000a 0593     		str	r3, [sp, #20]
 121 000c 0693     		str	r3, [sp, #24]
 122 000e 0793     		str	r3, [sp, #28]
  55:Src/usart.c   ****   if(uartHandle->Instance==USART3)
 123              		.loc 1 55 3 is_stmt 1 view .LVU27
 124              		.loc 1 55 16 is_stmt 0 view .LVU28
 125 0010 0268     		ldr	r2, [r0]
 126              		.loc 1 55 5 view .LVU29
 127 0012 344B     		ldr	r3, .L15
 128 0014 9A42     		cmp	r2, r3
 129 0016 01D0     		beq	.L12
 130              	.LVL3:
 131              	.L7:
  56:Src/usart.c   ****   {
  57:Src/usart.c   ****   /* USER CODE BEGIN USART3_MspInit 0 */
  58:Src/usart.c   **** 
  59:Src/usart.c   ****   /* USER CODE END USART3_MspInit 0 */
  60:Src/usart.c   ****     /* USART3 clock enable */
  61:Src/usart.c   ****     __HAL_RCC_USART3_CLK_ENABLE();
  62:Src/usart.c   ****   
  63:Src/usart.c   ****     __HAL_RCC_GPIOB_CLK_ENABLE();
  64:Src/usart.c   ****     /**USART3 GPIO Configuration    
  65:Src/usart.c   ****     PB10     ------> USART3_TX
  66:Src/usart.c   ****     PB11     ------> USART3_RX 
  67:Src/usart.c   ****     */
  68:Src/usart.c   ****     GPIO_InitStruct.Pin = GPIO_PIN_10|GPIO_PIN_11;
  69:Src/usart.c   ****     GPIO_InitStruct.Mode = GPIO_MODE_AF_PP;
  70:Src/usart.c   ****     GPIO_InitStruct.Pull = GPIO_PULLUP;
  71:Src/usart.c   ****     GPIO_InitStruct.Speed = GPIO_SPEED_FREQ_VERY_HIGH;
  72:Src/usart.c   ****     GPIO_InitStruct.Alternate = GPIO_AF7_USART3;
  73:Src/usart.c   ****     HAL_GPIO_Init(GPIOB, &GPIO_InitStruct);
  74:Src/usart.c   **** 
  75:Src/usart.c   ****     /* USART3 DMA Init */
  76:Src/usart.c   ****     /* USART3_RX Init */
  77:Src/usart.c   ****     hdma_usart3_rx.Instance = DMA1_Stream1;
  78:Src/usart.c   ****     hdma_usart3_rx.Init.Channel = DMA_CHANNEL_4;
  79:Src/usart.c   ****     hdma_usart3_rx.Init.Direction = DMA_PERIPH_TO_MEMORY;
  80:Src/usart.c   ****     hdma_usart3_rx.Init.PeriphInc = DMA_PINC_DISABLE;
  81:Src/usart.c   ****     hdma_usart3_rx.Init.MemInc = DMA_MINC_ENABLE;
  82:Src/usart.c   ****     hdma_usart3_rx.Init.PeriphDataAlignment = DMA_PDATAALIGN_BYTE;
  83:Src/usart.c   ****     hdma_usart3_rx.Init.MemDataAlignment = DMA_MDATAALIGN_BYTE;
  84:Src/usart.c   ****     hdma_usart3_rx.Init.Mode = DMA_NORMAL;
  85:Src/usart.c   ****     hdma_usart3_rx.Init.Priority = DMA_PRIORITY_LOW;
  86:Src/usart.c   ****     hdma_usart3_rx.Init.FIFOMode = DMA_FIFOMODE_DISABLE;
  87:Src/usart.c   ****     if (HAL_DMA_Init(&hdma_usart3_rx) != HAL_OK)
  88:Src/usart.c   ****     {
  89:Src/usart.c   ****       Error_Handler();
  90:Src/usart.c   ****     }
  91:Src/usart.c   **** 
  92:Src/usart.c   ****     __HAL_LINKDMA(uartHandle,hdmarx,hdma_usart3_rx);
  93:Src/usart.c   **** 
  94:Src/usart.c   ****     /* USART3_TX Init */
  95:Src/usart.c   ****     hdma_usart3_tx.Instance = DMA1_Stream3;
  96:Src/usart.c   ****     hdma_usart3_tx.Init.Channel = DMA_CHANNEL_4;
  97:Src/usart.c   ****     hdma_usart3_tx.Init.Direction = DMA_MEMORY_TO_PERIPH;
  98:Src/usart.c   ****     hdma_usart3_tx.Init.PeriphInc = DMA_PINC_DISABLE;
  99:Src/usart.c   ****     hdma_usart3_tx.Init.MemInc = DMA_MINC_ENABLE;
ARM GAS  C:\Users\ncer\AppData\Local\Temp\ccXRE5cP.s 			page 5


 100:Src/usart.c   ****     hdma_usart3_tx.Init.PeriphDataAlignment = DMA_PDATAALIGN_BYTE;
 101:Src/usart.c   ****     hdma_usart3_tx.Init.MemDataAlignment = DMA_MDATAALIGN_BYTE;
 102:Src/usart.c   ****     hdma_usart3_tx.Init.Mode = DMA_NORMAL;
 103:Src/usart.c   ****     hdma_usart3_tx.Init.Priority = DMA_PRIORITY_LOW;
 104:Src/usart.c   ****     hdma_usart3_tx.Init.FIFOMode = DMA_FIFOMODE_DISABLE;
 105:Src/usart.c   ****     if (HAL_DMA_Init(&hdma_usart3_tx) != HAL_OK)
 106:Src/usart.c   ****     {
 107:Src/usart.c   ****       Error_Handler();
 108:Src/usart.c   ****     }
 109:Src/usart.c   **** 
 110:Src/usart.c   ****     __HAL_LINKDMA(uartHandle,hdmatx,hdma_usart3_tx);
 111:Src/usart.c   **** 
 112:Src/usart.c   ****   /* USER CODE BEGIN USART3_MspInit 1 */
 113:Src/usart.c   ****     HAL_NVIC_SetPriority(USART3_IRQn, 1, 0);
 114:Src/usart.c   ****     HAL_NVIC_EnableIRQ(USART3_IRQn);
 115:Src/usart.c   ****   /* USER CODE END USART3_MspInit 1 */
 116:Src/usart.c   ****   }
 117:Src/usart.c   **** }
 132              		.loc 1 117 1 view .LVU30
 133 0018 09B0     		add	sp, sp, #36
 134              	.LCFI3:
 135              		.cfi_remember_state
 136              		.cfi_def_cfa_offset 12
 137              		@ sp needed
 138 001a 30BD     		pop	{r4, r5, pc}
 139              	.LVL4:
 140              	.L12:
 141              	.LCFI4:
 142              		.cfi_restore_state
 143              		.loc 1 117 1 view .LVU31
 144 001c 0446     		mov	r4, r0
  61:Src/usart.c   ****   
 145              		.loc 1 61 5 is_stmt 1 view .LVU32
 146              	.LBB2:
  61:Src/usart.c   ****   
 147              		.loc 1 61 5 view .LVU33
 148 001e 0025     		movs	r5, #0
 149 0020 0195     		str	r5, [sp, #4]
  61:Src/usart.c   ****   
 150              		.loc 1 61 5 view .LVU34
 151 0022 03F5F833 		add	r3, r3, #126976
 152 0026 1A6C     		ldr	r2, [r3, #64]
 153 0028 42F48022 		orr	r2, r2, #262144
 154 002c 1A64     		str	r2, [r3, #64]
  61:Src/usart.c   ****   
 155              		.loc 1 61 5 view .LVU35
 156 002e 1A6C     		ldr	r2, [r3, #64]
 157 0030 02F48022 		and	r2, r2, #262144
 158 0034 0192     		str	r2, [sp, #4]
  61:Src/usart.c   ****   
 159              		.loc 1 61 5 view .LVU36
 160 0036 019A     		ldr	r2, [sp, #4]
 161              	.LBE2:
  61:Src/usart.c   ****   
 162              		.loc 1 61 5 view .LVU37
  63:Src/usart.c   ****     /**USART3 GPIO Configuration    
 163              		.loc 1 63 5 view .LVU38
ARM GAS  C:\Users\ncer\AppData\Local\Temp\ccXRE5cP.s 			page 6


 164              	.LBB3:
  63:Src/usart.c   ****     /**USART3 GPIO Configuration    
 165              		.loc 1 63 5 view .LVU39
 166 0038 0295     		str	r5, [sp, #8]
  63:Src/usart.c   ****     /**USART3 GPIO Configuration    
 167              		.loc 1 63 5 view .LVU40
 168 003a 1A6B     		ldr	r2, [r3, #48]
 169 003c 42F00202 		orr	r2, r2, #2
 170 0040 1A63     		str	r2, [r3, #48]
  63:Src/usart.c   ****     /**USART3 GPIO Configuration    
 171              		.loc 1 63 5 view .LVU41
 172 0042 1B6B     		ldr	r3, [r3, #48]
 173 0044 03F00203 		and	r3, r3, #2
 174 0048 0293     		str	r3, [sp, #8]
  63:Src/usart.c   ****     /**USART3 GPIO Configuration    
 175              		.loc 1 63 5 view .LVU42
 176 004a 029B     		ldr	r3, [sp, #8]
 177              	.LBE3:
  63:Src/usart.c   ****     /**USART3 GPIO Configuration    
 178              		.loc 1 63 5 view .LVU43
  68:Src/usart.c   ****     GPIO_InitStruct.Mode = GPIO_MODE_AF_PP;
 179              		.loc 1 68 5 view .LVU44
  68:Src/usart.c   ****     GPIO_InitStruct.Mode = GPIO_MODE_AF_PP;
 180              		.loc 1 68 25 is_stmt 0 view .LVU45
 181 004c 4FF44063 		mov	r3, #3072
 182 0050 0393     		str	r3, [sp, #12]
  69:Src/usart.c   ****     GPIO_InitStruct.Pull = GPIO_PULLUP;
 183              		.loc 1 69 5 is_stmt 1 view .LVU46
  69:Src/usart.c   ****     GPIO_InitStruct.Pull = GPIO_PULLUP;
 184              		.loc 1 69 26 is_stmt 0 view .LVU47
 185 0052 0223     		movs	r3, #2
 186 0054 0493     		str	r3, [sp, #16]
  70:Src/usart.c   ****     GPIO_InitStruct.Speed = GPIO_SPEED_FREQ_VERY_HIGH;
 187              		.loc 1 70 5 is_stmt 1 view .LVU48
  70:Src/usart.c   ****     GPIO_InitStruct.Speed = GPIO_SPEED_FREQ_VERY_HIGH;
 188              		.loc 1 70 26 is_stmt 0 view .LVU49
 189 0056 0123     		movs	r3, #1
 190 0058 0593     		str	r3, [sp, #20]
  71:Src/usart.c   ****     GPIO_InitStruct.Alternate = GPIO_AF7_USART3;
 191              		.loc 1 71 5 is_stmt 1 view .LVU50
  71:Src/usart.c   ****     GPIO_InitStruct.Alternate = GPIO_AF7_USART3;
 192              		.loc 1 71 27 is_stmt 0 view .LVU51
 193 005a 0323     		movs	r3, #3
 194 005c 0693     		str	r3, [sp, #24]
  72:Src/usart.c   ****     HAL_GPIO_Init(GPIOB, &GPIO_InitStruct);
 195              		.loc 1 72 5 is_stmt 1 view .LVU52
  72:Src/usart.c   ****     HAL_GPIO_Init(GPIOB, &GPIO_InitStruct);
 196              		.loc 1 72 31 is_stmt 0 view .LVU53
 197 005e 0723     		movs	r3, #7
 198 0060 0793     		str	r3, [sp, #28]
  73:Src/usart.c   **** 
 199              		.loc 1 73 5 is_stmt 1 view .LVU54
 200 0062 03A9     		add	r1, sp, #12
 201 0064 2048     		ldr	r0, .L15+4
 202              	.LVL5:
  73:Src/usart.c   **** 
 203              		.loc 1 73 5 is_stmt 0 view .LVU55
ARM GAS  C:\Users\ncer\AppData\Local\Temp\ccXRE5cP.s 			page 7


 204 0066 FFF7FEFF 		bl	HAL_GPIO_Init
 205              	.LVL6:
  77:Src/usart.c   ****     hdma_usart3_rx.Init.Channel = DMA_CHANNEL_4;
 206              		.loc 1 77 5 is_stmt 1 view .LVU56
  77:Src/usart.c   ****     hdma_usart3_rx.Init.Channel = DMA_CHANNEL_4;
 207              		.loc 1 77 29 is_stmt 0 view .LVU57
 208 006a 2048     		ldr	r0, .L15+8
 209 006c 204B     		ldr	r3, .L15+12
 210 006e 0360     		str	r3, [r0]
  78:Src/usart.c   ****     hdma_usart3_rx.Init.Direction = DMA_PERIPH_TO_MEMORY;
 211              		.loc 1 78 5 is_stmt 1 view .LVU58
  78:Src/usart.c   ****     hdma_usart3_rx.Init.Direction = DMA_PERIPH_TO_MEMORY;
 212              		.loc 1 78 33 is_stmt 0 view .LVU59
 213 0070 4FF00063 		mov	r3, #134217728
 214 0074 4360     		str	r3, [r0, #4]
  79:Src/usart.c   ****     hdma_usart3_rx.Init.PeriphInc = DMA_PINC_DISABLE;
 215              		.loc 1 79 5 is_stmt 1 view .LVU60
  79:Src/usart.c   ****     hdma_usart3_rx.Init.PeriphInc = DMA_PINC_DISABLE;
 216              		.loc 1 79 35 is_stmt 0 view .LVU61
 217 0076 8560     		str	r5, [r0, #8]
  80:Src/usart.c   ****     hdma_usart3_rx.Init.MemInc = DMA_MINC_ENABLE;
 218              		.loc 1 80 5 is_stmt 1 view .LVU62
  80:Src/usart.c   ****     hdma_usart3_rx.Init.MemInc = DMA_MINC_ENABLE;
 219              		.loc 1 80 35 is_stmt 0 view .LVU63
 220 0078 C560     		str	r5, [r0, #12]
  81:Src/usart.c   ****     hdma_usart3_rx.Init.PeriphDataAlignment = DMA_PDATAALIGN_BYTE;
 221              		.loc 1 81 5 is_stmt 1 view .LVU64
  81:Src/usart.c   ****     hdma_usart3_rx.Init.PeriphDataAlignment = DMA_PDATAALIGN_BYTE;
 222              		.loc 1 81 32 is_stmt 0 view .LVU65
 223 007a 4FF48063 		mov	r3, #1024
 224 007e 0361     		str	r3, [r0, #16]
  82:Src/usart.c   ****     hdma_usart3_rx.Init.MemDataAlignment = DMA_MDATAALIGN_BYTE;
 225              		.loc 1 82 5 is_stmt 1 view .LVU66
  82:Src/usart.c   ****     hdma_usart3_rx.Init.MemDataAlignment = DMA_MDATAALIGN_BYTE;
 226              		.loc 1 82 45 is_stmt 0 view .LVU67
 227 0080 4561     		str	r5, [r0, #20]
  83:Src/usart.c   ****     hdma_usart3_rx.Init.Mode = DMA_NORMAL;
 228              		.loc 1 83 5 is_stmt 1 view .LVU68
  83:Src/usart.c   ****     hdma_usart3_rx.Init.Mode = DMA_NORMAL;
 229              		.loc 1 83 42 is_stmt 0 view .LVU69
 230 0082 8561     		str	r5, [r0, #24]
  84:Src/usart.c   ****     hdma_usart3_rx.Init.Priority = DMA_PRIORITY_LOW;
 231              		.loc 1 84 5 is_stmt 1 view .LVU70
  84:Src/usart.c   ****     hdma_usart3_rx.Init.Priority = DMA_PRIORITY_LOW;
 232              		.loc 1 84 30 is_stmt 0 view .LVU71
 233 0084 C561     		str	r5, [r0, #28]
  85:Src/usart.c   ****     hdma_usart3_rx.Init.FIFOMode = DMA_FIFOMODE_DISABLE;
 234              		.loc 1 85 5 is_stmt 1 view .LVU72
  85:Src/usart.c   ****     hdma_usart3_rx.Init.FIFOMode = DMA_FIFOMODE_DISABLE;
 235              		.loc 1 85 34 is_stmt 0 view .LVU73
 236 0086 0562     		str	r5, [r0, #32]
  86:Src/usart.c   ****     if (HAL_DMA_Init(&hdma_usart3_rx) != HAL_OK)
 237              		.loc 1 86 5 is_stmt 1 view .LVU74
  86:Src/usart.c   ****     if (HAL_DMA_Init(&hdma_usart3_rx) != HAL_OK)
 238              		.loc 1 86 34 is_stmt 0 view .LVU75
 239 0088 4562     		str	r5, [r0, #36]
  87:Src/usart.c   ****     {
ARM GAS  C:\Users\ncer\AppData\Local\Temp\ccXRE5cP.s 			page 8


 240              		.loc 1 87 5 is_stmt 1 view .LVU76
  87:Src/usart.c   ****     {
 241              		.loc 1 87 9 is_stmt 0 view .LVU77
 242 008a FFF7FEFF 		bl	HAL_DMA_Init
 243              	.LVL7:
  87:Src/usart.c   ****     {
 244              		.loc 1 87 8 view .LVU78
 245 008e 18BB     		cbnz	r0, .L13
 246              	.L9:
  92:Src/usart.c   **** 
 247              		.loc 1 92 5 is_stmt 1 view .LVU79
  92:Src/usart.c   **** 
 248              		.loc 1 92 5 view .LVU80
 249 0090 164B     		ldr	r3, .L15+8
 250 0092 6363     		str	r3, [r4, #52]
  92:Src/usart.c   **** 
 251              		.loc 1 92 5 view .LVU81
 252 0094 9C63     		str	r4, [r3, #56]
  92:Src/usart.c   **** 
 253              		.loc 1 92 5 view .LVU82
  95:Src/usart.c   ****     hdma_usart3_tx.Init.Channel = DMA_CHANNEL_4;
 254              		.loc 1 95 5 view .LVU83
  95:Src/usart.c   ****     hdma_usart3_tx.Init.Channel = DMA_CHANNEL_4;
 255              		.loc 1 95 29 is_stmt 0 view .LVU84
 256 0096 1748     		ldr	r0, .L15+16
 257 0098 174B     		ldr	r3, .L15+20
 258 009a 0360     		str	r3, [r0]
  96:Src/usart.c   ****     hdma_usart3_tx.Init.Direction = DMA_MEMORY_TO_PERIPH;
 259              		.loc 1 96 5 is_stmt 1 view .LVU85
  96:Src/usart.c   ****     hdma_usart3_tx.Init.Direction = DMA_MEMORY_TO_PERIPH;
 260              		.loc 1 96 33 is_stmt 0 view .LVU86
 261 009c 4FF00063 		mov	r3, #134217728
 262 00a0 4360     		str	r3, [r0, #4]
  97:Src/usart.c   ****     hdma_usart3_tx.Init.PeriphInc = DMA_PINC_DISABLE;
 263              		.loc 1 97 5 is_stmt 1 view .LVU87
  97:Src/usart.c   ****     hdma_usart3_tx.Init.PeriphInc = DMA_PINC_DISABLE;
 264              		.loc 1 97 35 is_stmt 0 view .LVU88
 265 00a2 4023     		movs	r3, #64
 266 00a4 8360     		str	r3, [r0, #8]
  98:Src/usart.c   ****     hdma_usart3_tx.Init.MemInc = DMA_MINC_ENABLE;
 267              		.loc 1 98 5 is_stmt 1 view .LVU89
  98:Src/usart.c   ****     hdma_usart3_tx.Init.MemInc = DMA_MINC_ENABLE;
 268              		.loc 1 98 35 is_stmt 0 view .LVU90
 269 00a6 0023     		movs	r3, #0
 270 00a8 C360     		str	r3, [r0, #12]
  99:Src/usart.c   ****     hdma_usart3_tx.Init.PeriphDataAlignment = DMA_PDATAALIGN_BYTE;
 271              		.loc 1 99 5 is_stmt 1 view .LVU91
  99:Src/usart.c   ****     hdma_usart3_tx.Init.PeriphDataAlignment = DMA_PDATAALIGN_BYTE;
 272              		.loc 1 99 32 is_stmt 0 view .LVU92
 273 00aa 4FF48062 		mov	r2, #1024
 274 00ae 0261     		str	r2, [r0, #16]
 100:Src/usart.c   ****     hdma_usart3_tx.Init.MemDataAlignment = DMA_MDATAALIGN_BYTE;
 275              		.loc 1 100 5 is_stmt 1 view .LVU93
 100:Src/usart.c   ****     hdma_usart3_tx.Init.MemDataAlignment = DMA_MDATAALIGN_BYTE;
 276              		.loc 1 100 45 is_stmt 0 view .LVU94
 277 00b0 4361     		str	r3, [r0, #20]
 101:Src/usart.c   ****     hdma_usart3_tx.Init.Mode = DMA_NORMAL;
ARM GAS  C:\Users\ncer\AppData\Local\Temp\ccXRE5cP.s 			page 9


 278              		.loc 1 101 5 is_stmt 1 view .LVU95
 101:Src/usart.c   ****     hdma_usart3_tx.Init.Mode = DMA_NORMAL;
 279              		.loc 1 101 42 is_stmt 0 view .LVU96
 280 00b2 8361     		str	r3, [r0, #24]
 102:Src/usart.c   ****     hdma_usart3_tx.Init.Priority = DMA_PRIORITY_LOW;
 281              		.loc 1 102 5 is_stmt 1 view .LVU97
 102:Src/usart.c   ****     hdma_usart3_tx.Init.Priority = DMA_PRIORITY_LOW;
 282              		.loc 1 102 30 is_stmt 0 view .LVU98
 283 00b4 C361     		str	r3, [r0, #28]
 103:Src/usart.c   ****     hdma_usart3_tx.Init.FIFOMode = DMA_FIFOMODE_DISABLE;
 284              		.loc 1 103 5 is_stmt 1 view .LVU99
 103:Src/usart.c   ****     hdma_usart3_tx.Init.FIFOMode = DMA_FIFOMODE_DISABLE;
 285              		.loc 1 103 34 is_stmt 0 view .LVU100
 286 00b6 0362     		str	r3, [r0, #32]
 104:Src/usart.c   ****     if (HAL_DMA_Init(&hdma_usart3_tx) != HAL_OK)
 287              		.loc 1 104 5 is_stmt 1 view .LVU101
 104:Src/usart.c   ****     if (HAL_DMA_Init(&hdma_usart3_tx) != HAL_OK)
 288              		.loc 1 104 34 is_stmt 0 view .LVU102
 289 00b8 4362     		str	r3, [r0, #36]
 105:Src/usart.c   ****     {
 290              		.loc 1 105 5 is_stmt 1 view .LVU103
 105:Src/usart.c   ****     {
 291              		.loc 1 105 9 is_stmt 0 view .LVU104
 292 00ba FFF7FEFF 		bl	HAL_DMA_Init
 293              	.LVL8:
 105:Src/usart.c   ****     {
 294              		.loc 1 105 8 view .LVU105
 295 00be 70B9     		cbnz	r0, .L14
 296              	.L10:
 110:Src/usart.c   **** 
 297              		.loc 1 110 5 is_stmt 1 view .LVU106
 110:Src/usart.c   **** 
 298              		.loc 1 110 5 view .LVU107
 299 00c0 0C4B     		ldr	r3, .L15+16
 300 00c2 2363     		str	r3, [r4, #48]
 110:Src/usart.c   **** 
 301              		.loc 1 110 5 view .LVU108
 302 00c4 9C63     		str	r4, [r3, #56]
 110:Src/usart.c   **** 
 303              		.loc 1 110 5 view .LVU109
 113:Src/usart.c   ****     HAL_NVIC_EnableIRQ(USART3_IRQn);
 304              		.loc 1 113 5 view .LVU110
 305 00c6 0022     		movs	r2, #0
 306 00c8 0121     		movs	r1, #1
 307 00ca 2720     		movs	r0, #39
 308 00cc FFF7FEFF 		bl	HAL_NVIC_SetPriority
 309              	.LVL9:
 114:Src/usart.c   ****   /* USER CODE END USART3_MspInit 1 */
 310              		.loc 1 114 5 view .LVU111
 311 00d0 2720     		movs	r0, #39
 312 00d2 FFF7FEFF 		bl	HAL_NVIC_EnableIRQ
 313              	.LVL10:
 314              		.loc 1 117 1 is_stmt 0 view .LVU112
 315 00d6 9FE7     		b	.L7
 316              	.L13:
  89:Src/usart.c   ****     }
 317              		.loc 1 89 7 is_stmt 1 view .LVU113
ARM GAS  C:\Users\ncer\AppData\Local\Temp\ccXRE5cP.s 			page 10


 318 00d8 FFF7FEFF 		bl	Error_Handler
 319              	.LVL11:
 320 00dc D8E7     		b	.L9
 321              	.L14:
 107:Src/usart.c   ****     }
 322              		.loc 1 107 7 view .LVU114
 323 00de FFF7FEFF 		bl	Error_Handler
 324              	.LVL12:
 325 00e2 EDE7     		b	.L10
 326              	.L16:
 327              		.align	2
 328              	.L15:
 329 00e4 00480040 		.word	1073760256
 330 00e8 00040240 		.word	1073873920
 331 00ec 00000000 		.word	hdma_usart3_rx
 332 00f0 28600240 		.word	1073897512
 333 00f4 00000000 		.word	hdma_usart3_tx
 334 00f8 58600240 		.word	1073897560
 335              		.cfi_endproc
 336              	.LFE131:
 338              		.section	.text.HAL_UART_MspDeInit,"ax",%progbits
 339              		.align	1
 340              		.global	HAL_UART_MspDeInit
 341              		.syntax unified
 342              		.thumb
 343              		.thumb_func
 344              		.fpu fpv4-sp-d16
 346              	HAL_UART_MspDeInit:
 347              	.LVL13:
 348              	.LFB132:
 118:Src/usart.c   **** 
 119:Src/usart.c   **** void HAL_UART_MspDeInit(UART_HandleTypeDef* uartHandle)
 120:Src/usart.c   **** {
 349              		.loc 1 120 1 view -0
 350              		.cfi_startproc
 351              		@ args = 0, pretend = 0, frame = 0
 352              		@ frame_needed = 0, uses_anonymous_args = 0
 121:Src/usart.c   **** 
 122:Src/usart.c   ****   if(uartHandle->Instance==USART3)
 353              		.loc 1 122 3 view .LVU116
 354              		.loc 1 122 16 is_stmt 0 view .LVU117
 355 0000 0268     		ldr	r2, [r0]
 356              		.loc 1 122 5 view .LVU118
 357 0002 0B4B     		ldr	r3, .L24
 358 0004 9A42     		cmp	r2, r3
 359 0006 00D0     		beq	.L23
 360 0008 7047     		bx	lr
 361              	.L23:
 120:Src/usart.c   **** 
 362              		.loc 1 120 1 view .LVU119
 363 000a 10B5     		push	{r4, lr}
 364              	.LCFI5:
 365              		.cfi_def_cfa_offset 8
 366              		.cfi_offset 4, -8
 367              		.cfi_offset 14, -4
 368 000c 0446     		mov	r4, r0
 123:Src/usart.c   ****   {
ARM GAS  C:\Users\ncer\AppData\Local\Temp\ccXRE5cP.s 			page 11


 124:Src/usart.c   ****   /* USER CODE BEGIN USART3_MspDeInit 0 */
 125:Src/usart.c   **** 
 126:Src/usart.c   ****   /* USER CODE END USART3_MspDeInit 0 */
 127:Src/usart.c   ****     /* Peripheral clock disable */
 128:Src/usart.c   ****     __HAL_RCC_USART3_CLK_DISABLE();
 369              		.loc 1 128 5 is_stmt 1 view .LVU120
 370 000e 094A     		ldr	r2, .L24+4
 371 0010 136C     		ldr	r3, [r2, #64]
 372 0012 23F48023 		bic	r3, r3, #262144
 373 0016 1364     		str	r3, [r2, #64]
 129:Src/usart.c   ****   
 130:Src/usart.c   ****     /**USART3 GPIO Configuration    
 131:Src/usart.c   ****     PB10     ------> USART3_TX
 132:Src/usart.c   ****     PB11     ------> USART3_RX 
 133:Src/usart.c   ****     */
 134:Src/usart.c   ****     HAL_GPIO_DeInit(GPIOB, GPIO_PIN_10|GPIO_PIN_11);
 374              		.loc 1 134 5 view .LVU121
 375 0018 4FF44061 		mov	r1, #3072
 376 001c 0648     		ldr	r0, .L24+8
 377              	.LVL14:
 378              		.loc 1 134 5 is_stmt 0 view .LVU122
 379 001e FFF7FEFF 		bl	HAL_GPIO_DeInit
 380              	.LVL15:
 135:Src/usart.c   **** 
 136:Src/usart.c   ****     /* USART3 DMA DeInit */
 137:Src/usart.c   ****     HAL_DMA_DeInit(uartHandle->hdmarx);
 381              		.loc 1 137 5 is_stmt 1 view .LVU123
 382 0022 606B     		ldr	r0, [r4, #52]
 383 0024 FFF7FEFF 		bl	HAL_DMA_DeInit
 384              	.LVL16:
 138:Src/usart.c   ****     HAL_DMA_DeInit(uartHandle->hdmatx);
 385              		.loc 1 138 5 view .LVU124
 386 0028 206B     		ldr	r0, [r4, #48]
 387 002a FFF7FEFF 		bl	HAL_DMA_DeInit
 388              	.LVL17:
 139:Src/usart.c   ****   /* USER CODE BEGIN USART3_MspDeInit 1 */
 140:Src/usart.c   **** 
 141:Src/usart.c   ****   /* USER CODE END USART3_MspDeInit 1 */
 142:Src/usart.c   ****   }
 143:Src/usart.c   **** } 
 389              		.loc 1 143 1 is_stmt 0 view .LVU125
 390 002e 10BD     		pop	{r4, pc}
 391              	.LVL18:
 392              	.L25:
 393              		.loc 1 143 1 view .LVU126
 394              		.align	2
 395              	.L24:
 396 0030 00480040 		.word	1073760256
 397 0034 00380240 		.word	1073887232
 398 0038 00040240 		.word	1073873920
 399              		.cfi_endproc
 400              	.LFE132:
 402              		.comm	hdma_usart3_tx,96,4
 403              		.comm	hdma_usart3_rx,96,4
 404              		.comm	huart3,64,4
 405              		.text
 406              	.Letext0:
ARM GAS  C:\Users\ncer\AppData\Local\Temp\ccXRE5cP.s 			page 12


 407              		.file 2 "c:\\arm_gcc\\arm-none-eabi\\include\\machine\\_default_types.h"
 408              		.file 3 "c:\\arm_gcc\\arm-none-eabi\\include\\sys\\_stdint.h"
 409              		.file 4 "Drivers/CMSIS/Include/core_cm4.h"
 410              		.file 5 "Drivers/CMSIS/Device/ST/STM32F4xx/Include/system_stm32f4xx.h"
 411              		.file 6 "Drivers/CMSIS/Device/ST/STM32F4xx/Include/stm32f405xx.h"
 412              		.file 7 "Drivers/STM32F4xx_HAL_Driver/Inc/stm32f4xx_hal_def.h"
 413              		.file 8 "Drivers/STM32F4xx_HAL_Driver/Inc/stm32f4xx_hal_gpio.h"
 414              		.file 9 "Drivers/STM32F4xx_HAL_Driver/Inc/stm32f4xx_hal_dma.h"
 415              		.file 10 "Drivers/STM32F4xx_HAL_Driver/Inc/stm32f4xx_hal_uart.h"
 416              		.file 11 "Inc/usart.h"
 417              		.file 12 "c:\\arm_gcc\\arm-none-eabi\\include\\sys\\lock.h"
 418              		.file 13 "c:\\arm_gcc\\arm-none-eabi\\include\\sys\\_types.h"
 419              		.file 14 "c:\\arm_gcc\\lib\\gcc\\arm-none-eabi\\9.2.1\\include\\stddef.h"
 420              		.file 15 "c:\\arm_gcc\\arm-none-eabi\\include\\sys\\reent.h"
 421              		.file 16 "Drivers/STM32F4xx_HAL_Driver/Inc/stm32f4xx_hal_cortex.h"
 422              		.file 17 "Inc/main.h"
ARM GAS  C:\Users\ncer\AppData\Local\Temp\ccXRE5cP.s 			page 13


DEFINED SYMBOLS
                            *ABS*:00000000 usart.c
C:\Users\ncer\AppData\Local\Temp\ccXRE5cP.s:18     .text.MX_USART3_UART_Init:00000000 $t
C:\Users\ncer\AppData\Local\Temp\ccXRE5cP.s:26     .text.MX_USART3_UART_Init:00000000 MX_USART3_UART_Init
C:\Users\ncer\AppData\Local\Temp\ccXRE5cP.s:85     .text.MX_USART3_UART_Init:0000002c $d
                            *COM*:00000040 huart3
C:\Users\ncer\AppData\Local\Temp\ccXRE5cP.s:91     .text.HAL_UART_MspInit:00000000 $t
C:\Users\ncer\AppData\Local\Temp\ccXRE5cP.s:98     .text.HAL_UART_MspInit:00000000 HAL_UART_MspInit
C:\Users\ncer\AppData\Local\Temp\ccXRE5cP.s:329    .text.HAL_UART_MspInit:000000e4 $d
                            *COM*:00000060 hdma_usart3_rx
                            *COM*:00000060 hdma_usart3_tx
C:\Users\ncer\AppData\Local\Temp\ccXRE5cP.s:339    .text.HAL_UART_MspDeInit:00000000 $t
C:\Users\ncer\AppData\Local\Temp\ccXRE5cP.s:346    .text.HAL_UART_MspDeInit:00000000 HAL_UART_MspDeInit
C:\Users\ncer\AppData\Local\Temp\ccXRE5cP.s:396    .text.HAL_UART_MspDeInit:00000030 $d

UNDEFINED SYMBOLS
HAL_UART_Init
Error_Handler
HAL_GPIO_Init
HAL_DMA_Init
HAL_NVIC_SetPriority
HAL_NVIC_EnableIRQ
HAL_GPIO_DeInit
HAL_DMA_DeInit
