ARM GAS  C:\Users\ncer\AppData\Local\Temp\cchoyWsg.s 			page 1


   1              		.cpu cortex-m4
   2              		.eabi_attribute 27, 1
   3              		.eabi_attribute 28, 1
   4              		.eabi_attribute 20, 1
   5              		.eabi_attribute 21, 1
   6              		.eabi_attribute 23, 3
   7              		.eabi_attribute 24, 1
   8              		.eabi_attribute 25, 1
   9              		.eabi_attribute 26, 1
  10              		.eabi_attribute 30, 1
  11              		.eabi_attribute 34, 1
  12              		.eabi_attribute 18, 4
  13              		.file	"usart.c"
  14              		.text
  15              	.Ltext0:
  16              		.cfi_sections	.debug_frame
  17              		.section	.text.MX_USART3_UART_Init,"ax",%progbits
  18              		.align	1
  19              		.global	MX_USART3_UART_Init
  20              		.arch armv7e-m
  21              		.syntax unified
  22              		.thumb
  23              		.thumb_func
  24              		.fpu fpv4-sp-d16
  26              	MX_USART3_UART_Init:
  27              	.LFB130:
  28              		.file 1 "Src/usart.c"
   1:Src/usart.c   **** /**
   2:Src/usart.c   ****   ******************************************************************************
   3:Src/usart.c   ****   * File Name          : USART.c
   4:Src/usart.c   ****   * Description        : This file provides code for the configuration
   5:Src/usart.c   ****   *                      of the USART instances.
   6:Src/usart.c   ****   ******************************************************************************
   7:Src/usart.c   ****   * @attention
   8:Src/usart.c   ****   *
   9:Src/usart.c   ****   * <h2><center>&copy; Copyright (c) 2019 STMicroelectronics.
  10:Src/usart.c   ****   * All rights reserved.</center></h2>
  11:Src/usart.c   ****   *
  12:Src/usart.c   ****   * This software component is licensed by ST under BSD 3-Clause license,
  13:Src/usart.c   ****   * the "License"; You may not use this file except in compliance with the
  14:Src/usart.c   ****   * License. You may obtain a copy of the License at:
  15:Src/usart.c   ****   *                        opensource.org/licenses/BSD-3-Clause
  16:Src/usart.c   ****   *
  17:Src/usart.c   ****   ******************************************************************************
  18:Src/usart.c   ****   */
  19:Src/usart.c   **** 
  20:Src/usart.c   **** /* Includes ------------------------------------------------------------------*/
  21:Src/usart.c   **** #include "usart.h"
  22:Src/usart.c   **** 
  23:Src/usart.c   **** /* USER CODE BEGIN 0 */
  24:Src/usart.c   **** #include "string.h"
  25:Src/usart.c   **** /* USER CODE END 0 */
  26:Src/usart.c   **** 
  27:Src/usart.c   **** UART_HandleTypeDef huart3;
  28:Src/usart.c   **** DMA_HandleTypeDef hdma_usart3_rx;
  29:Src/usart.c   **** DMA_HandleTypeDef hdma_usart3_tx;
  30:Src/usart.c   **** 
ARM GAS  C:\Users\ncer\AppData\Local\Temp\cchoyWsg.s 			page 2


  31:Src/usart.c   **** /* USART3 init function */
  32:Src/usart.c   **** 
  33:Src/usart.c   **** void MX_USART3_UART_Init(void)
  34:Src/usart.c   **** {
  29              		.loc 1 34 1 view -0
  30              		.cfi_startproc
  31              		@ args = 0, pretend = 0, frame = 0
  32              		@ frame_needed = 0, uses_anonymous_args = 0
  33 0000 08B5     		push	{r3, lr}
  34              	.LCFI0:
  35              		.cfi_def_cfa_offset 8
  36              		.cfi_offset 3, -8
  37              		.cfi_offset 14, -4
  35:Src/usart.c   **** 
  36:Src/usart.c   ****   huart3.Instance = USART3;
  38              		.loc 1 36 3 view .LVU1
  39              		.loc 1 36 19 is_stmt 0 view .LVU2
  40 0002 0A48     		ldr	r0, .L5
  41 0004 0A4B     		ldr	r3, .L5+4
  42 0006 0360     		str	r3, [r0]
  37:Src/usart.c   ****   huart3.Init.BaudRate = 115200;
  43              		.loc 1 37 3 is_stmt 1 view .LVU3
  44              		.loc 1 37 24 is_stmt 0 view .LVU4
  45 0008 4FF4E133 		mov	r3, #115200
  46 000c 4360     		str	r3, [r0, #4]
  38:Src/usart.c   ****   huart3.Init.WordLength = UART_WORDLENGTH_8B;
  47              		.loc 1 38 3 is_stmt 1 view .LVU5
  48              		.loc 1 38 26 is_stmt 0 view .LVU6
  49 000e 0023     		movs	r3, #0
  50 0010 8360     		str	r3, [r0, #8]
  39:Src/usart.c   ****   huart3.Init.StopBits = UART_STOPBITS_1;
  51              		.loc 1 39 3 is_stmt 1 view .LVU7
  52              		.loc 1 39 24 is_stmt 0 view .LVU8
  53 0012 C360     		str	r3, [r0, #12]
  40:Src/usart.c   ****   huart3.Init.Parity = UART_PARITY_NONE;
  54              		.loc 1 40 3 is_stmt 1 view .LVU9
  55              		.loc 1 40 22 is_stmt 0 view .LVU10
  56 0014 0361     		str	r3, [r0, #16]
  41:Src/usart.c   ****   huart3.Init.Mode = UART_MODE_TX_RX;
  57              		.loc 1 41 3 is_stmt 1 view .LVU11
  58              		.loc 1 41 20 is_stmt 0 view .LVU12
  59 0016 0C22     		movs	r2, #12
  60 0018 4261     		str	r2, [r0, #20]
  42:Src/usart.c   ****   huart3.Init.HwFlowCtl = UART_HWCONTROL_NONE;
  61              		.loc 1 42 3 is_stmt 1 view .LVU13
  62              		.loc 1 42 25 is_stmt 0 view .LVU14
  63 001a 8361     		str	r3, [r0, #24]
  43:Src/usart.c   ****   huart3.Init.OverSampling = UART_OVERSAMPLING_16;
  64              		.loc 1 43 3 is_stmt 1 view .LVU15
  65              		.loc 1 43 28 is_stmt 0 view .LVU16
  66 001c C361     		str	r3, [r0, #28]
  44:Src/usart.c   ****   if (HAL_UART_Init(&huart3) != HAL_OK)
  67              		.loc 1 44 3 is_stmt 1 view .LVU17
  68              		.loc 1 44 7 is_stmt 0 view .LVU18
  69 001e FFF7FEFF 		bl	HAL_UART_Init
  70              	.LVL0:
  71              		.loc 1 44 6 view .LVU19
ARM GAS  C:\Users\ncer\AppData\Local\Temp\cchoyWsg.s 			page 3


  72 0022 00B9     		cbnz	r0, .L4
  73              	.L1:
  45:Src/usart.c   ****   {
  46:Src/usart.c   ****     Error_Handler();
  47:Src/usart.c   ****   }
  48:Src/usart.c   **** 
  49:Src/usart.c   **** }
  74              		.loc 1 49 1 view .LVU20
  75 0024 08BD     		pop	{r3, pc}
  76              	.L4:
  46:Src/usart.c   ****   }
  77              		.loc 1 46 5 is_stmt 1 view .LVU21
  78 0026 FFF7FEFF 		bl	Error_Handler
  79              	.LVL1:
  80              		.loc 1 49 1 is_stmt 0 view .LVU22
  81 002a FBE7     		b	.L1
  82              	.L6:
  83              		.align	2
  84              	.L5:
  85 002c 00000000 		.word	huart3
  86 0030 00480040 		.word	1073760256
  87              		.cfi_endproc
  88              	.LFE130:
  90              		.section	.text.HAL_UART_MspInit,"ax",%progbits
  91              		.align	1
  92              		.global	HAL_UART_MspInit
  93              		.syntax unified
  94              		.thumb
  95              		.thumb_func
  96              		.fpu fpv4-sp-d16
  98              	HAL_UART_MspInit:
  99              	.LVL2:
 100              	.LFB131:
  50:Src/usart.c   **** 
  51:Src/usart.c   **** void HAL_UART_MspInit(UART_HandleTypeDef* uartHandle)
  52:Src/usart.c   **** {
 101              		.loc 1 52 1 is_stmt 1 view -0
 102              		.cfi_startproc
 103              		@ args = 0, pretend = 0, frame = 32
 104              		@ frame_needed = 0, uses_anonymous_args = 0
 105              		.loc 1 52 1 is_stmt 0 view .LVU24
 106 0000 30B5     		push	{r4, r5, lr}
 107              	.LCFI1:
 108              		.cfi_def_cfa_offset 12
 109              		.cfi_offset 4, -12
 110              		.cfi_offset 5, -8
 111              		.cfi_offset 14, -4
 112 0002 89B0     		sub	sp, sp, #36
 113              	.LCFI2:
 114              		.cfi_def_cfa_offset 48
  53:Src/usart.c   **** 
  54:Src/usart.c   ****   GPIO_InitTypeDef GPIO_InitStruct = {0};
 115              		.loc 1 54 3 is_stmt 1 view .LVU25
 116              		.loc 1 54 20 is_stmt 0 view .LVU26
 117 0004 0023     		movs	r3, #0
 118 0006 0393     		str	r3, [sp, #12]
 119 0008 0493     		str	r3, [sp, #16]
ARM GAS  C:\Users\ncer\AppData\Local\Temp\cchoyWsg.s 			page 4


 120 000a 0593     		str	r3, [sp, #20]
 121 000c 0693     		str	r3, [sp, #24]
 122 000e 0793     		str	r3, [sp, #28]
  55:Src/usart.c   ****   if(uartHandle->Instance==USART3)
 123              		.loc 1 55 3 is_stmt 1 view .LVU27
 124              		.loc 1 55 16 is_stmt 0 view .LVU28
 125 0010 0268     		ldr	r2, [r0]
 126              		.loc 1 55 5 view .LVU29
 127 0012 304B     		ldr	r3, .L15
 128 0014 9A42     		cmp	r2, r3
 129 0016 01D0     		beq	.L12
 130              	.LVL3:
 131              	.L7:
  56:Src/usart.c   ****   {
  57:Src/usart.c   ****   /* USER CODE BEGIN USART3_MspInit 0 */
  58:Src/usart.c   **** 
  59:Src/usart.c   ****   /* USER CODE END USART3_MspInit 0 */
  60:Src/usart.c   ****     /* USART3 clock enable */
  61:Src/usart.c   ****     __HAL_RCC_USART3_CLK_ENABLE();
  62:Src/usart.c   ****   
  63:Src/usart.c   ****     __HAL_RCC_GPIOB_CLK_ENABLE();
  64:Src/usart.c   ****     /**USART3 GPIO Configuration    
  65:Src/usart.c   ****     PB10     ------> USART3_TX
  66:Src/usart.c   ****     PB11     ------> USART3_RX 
  67:Src/usart.c   ****     */
  68:Src/usart.c   ****     GPIO_InitStruct.Pin = GPIO_PIN_10|GPIO_PIN_11;
  69:Src/usart.c   ****     GPIO_InitStruct.Mode = GPIO_MODE_AF_PP;
  70:Src/usart.c   ****     GPIO_InitStruct.Pull = GPIO_PULLUP;
  71:Src/usart.c   ****     GPIO_InitStruct.Speed = GPIO_SPEED_FREQ_VERY_HIGH;
  72:Src/usart.c   ****     GPIO_InitStruct.Alternate = GPIO_AF7_USART3;
  73:Src/usart.c   ****     HAL_GPIO_Init(GPIOB, &GPIO_InitStruct);
  74:Src/usart.c   **** 
  75:Src/usart.c   ****     /* USART3 DMA Init */
  76:Src/usart.c   ****     /* USART3_RX Init */
  77:Src/usart.c   ****     hdma_usart3_rx.Instance = DMA1_Stream1;
  78:Src/usart.c   ****     hdma_usart3_rx.Init.Channel = DMA_CHANNEL_4;
  79:Src/usart.c   ****     hdma_usart3_rx.Init.Direction = DMA_PERIPH_TO_MEMORY;
  80:Src/usart.c   ****     hdma_usart3_rx.Init.PeriphInc = DMA_PINC_DISABLE;
  81:Src/usart.c   ****     hdma_usart3_rx.Init.MemInc = DMA_MINC_ENABLE;
  82:Src/usart.c   ****     hdma_usart3_rx.Init.PeriphDataAlignment = DMA_PDATAALIGN_BYTE;
  83:Src/usart.c   ****     hdma_usart3_rx.Init.MemDataAlignment = DMA_MDATAALIGN_BYTE;
  84:Src/usart.c   ****     hdma_usart3_rx.Init.Mode = DMA_NORMAL;
  85:Src/usart.c   ****     hdma_usart3_rx.Init.Priority = DMA_PRIORITY_LOW;
  86:Src/usart.c   ****     hdma_usart3_rx.Init.FIFOMode = DMA_FIFOMODE_DISABLE;
  87:Src/usart.c   ****     if (HAL_DMA_Init(&hdma_usart3_rx) != HAL_OK)
  88:Src/usart.c   ****     {
  89:Src/usart.c   ****       Error_Handler();
  90:Src/usart.c   ****     }
  91:Src/usart.c   **** 
  92:Src/usart.c   ****     __HAL_LINKDMA(uartHandle,hdmarx,hdma_usart3_rx);
  93:Src/usart.c   **** 
  94:Src/usart.c   ****     /* USART3_TX Init */
  95:Src/usart.c   ****     hdma_usart3_tx.Instance = DMA1_Stream3;
  96:Src/usart.c   ****     hdma_usart3_tx.Init.Channel = DMA_CHANNEL_4;
  97:Src/usart.c   ****     hdma_usart3_tx.Init.Direction = DMA_MEMORY_TO_PERIPH;
  98:Src/usart.c   ****     hdma_usart3_tx.Init.PeriphInc = DMA_PINC_DISABLE;
  99:Src/usart.c   ****     hdma_usart3_tx.Init.MemInc = DMA_MINC_ENABLE;
ARM GAS  C:\Users\ncer\AppData\Local\Temp\cchoyWsg.s 			page 5


 100:Src/usart.c   ****     hdma_usart3_tx.Init.PeriphDataAlignment = DMA_PDATAALIGN_BYTE;
 101:Src/usart.c   ****     hdma_usart3_tx.Init.MemDataAlignment = DMA_MDATAALIGN_BYTE;
 102:Src/usart.c   ****     hdma_usart3_tx.Init.Mode = DMA_NORMAL;
 103:Src/usart.c   ****     hdma_usart3_tx.Init.Priority = DMA_PRIORITY_LOW;
 104:Src/usart.c   ****     hdma_usart3_tx.Init.FIFOMode = DMA_FIFOMODE_DISABLE;
 105:Src/usart.c   ****     if (HAL_DMA_Init(&hdma_usart3_tx) != HAL_OK)
 106:Src/usart.c   ****     {
 107:Src/usart.c   ****       Error_Handler();
 108:Src/usart.c   ****     }
 109:Src/usart.c   **** 
 110:Src/usart.c   ****     __HAL_LINKDMA(uartHandle,hdmatx,hdma_usart3_tx);
 111:Src/usart.c   **** 
 112:Src/usart.c   ****   /* USER CODE BEGIN USART3_MspInit 1 */
 113:Src/usart.c   **** 
 114:Src/usart.c   ****   /* USER CODE END USART3_MspInit 1 */
 115:Src/usart.c   ****   }
 116:Src/usart.c   **** }
 132              		.loc 1 116 1 view .LVU30
 133 0018 09B0     		add	sp, sp, #36
 134              	.LCFI3:
 135              		.cfi_remember_state
 136              		.cfi_def_cfa_offset 12
 137              		@ sp needed
 138 001a 30BD     		pop	{r4, r5, pc}
 139              	.LVL4:
 140              	.L12:
 141              	.LCFI4:
 142              		.cfi_restore_state
 143              		.loc 1 116 1 view .LVU31
 144 001c 0446     		mov	r4, r0
  61:Src/usart.c   ****   
 145              		.loc 1 61 5 is_stmt 1 view .LVU32
 146              	.LBB2:
  61:Src/usart.c   ****   
 147              		.loc 1 61 5 view .LVU33
 148 001e 0025     		movs	r5, #0
 149 0020 0195     		str	r5, [sp, #4]
  61:Src/usart.c   ****   
 150              		.loc 1 61 5 view .LVU34
 151 0022 03F5F833 		add	r3, r3, #126976
 152 0026 1A6C     		ldr	r2, [r3, #64]
 153 0028 42F48022 		orr	r2, r2, #262144
 154 002c 1A64     		str	r2, [r3, #64]
  61:Src/usart.c   ****   
 155              		.loc 1 61 5 view .LVU35
 156 002e 1A6C     		ldr	r2, [r3, #64]
 157 0030 02F48022 		and	r2, r2, #262144
 158 0034 0192     		str	r2, [sp, #4]
  61:Src/usart.c   ****   
 159              		.loc 1 61 5 view .LVU36
 160 0036 019A     		ldr	r2, [sp, #4]
 161              	.LBE2:
  63:Src/usart.c   ****     /**USART3 GPIO Configuration    
 162              		.loc 1 63 5 view .LVU37
 163              	.LBB3:
  63:Src/usart.c   ****     /**USART3 GPIO Configuration    
 164              		.loc 1 63 5 view .LVU38
ARM GAS  C:\Users\ncer\AppData\Local\Temp\cchoyWsg.s 			page 6


 165 0038 0295     		str	r5, [sp, #8]
  63:Src/usart.c   ****     /**USART3 GPIO Configuration    
 166              		.loc 1 63 5 view .LVU39
 167 003a 1A6B     		ldr	r2, [r3, #48]
 168 003c 42F00202 		orr	r2, r2, #2
 169 0040 1A63     		str	r2, [r3, #48]
  63:Src/usart.c   ****     /**USART3 GPIO Configuration    
 170              		.loc 1 63 5 view .LVU40
 171 0042 1B6B     		ldr	r3, [r3, #48]
 172 0044 03F00203 		and	r3, r3, #2
 173 0048 0293     		str	r3, [sp, #8]
  63:Src/usart.c   ****     /**USART3 GPIO Configuration    
 174              		.loc 1 63 5 view .LVU41
 175 004a 029B     		ldr	r3, [sp, #8]
 176              	.LBE3:
  68:Src/usart.c   ****     GPIO_InitStruct.Mode = GPIO_MODE_AF_PP;
 177              		.loc 1 68 5 view .LVU42
  68:Src/usart.c   ****     GPIO_InitStruct.Mode = GPIO_MODE_AF_PP;
 178              		.loc 1 68 25 is_stmt 0 view .LVU43
 179 004c 4FF44063 		mov	r3, #3072
 180 0050 0393     		str	r3, [sp, #12]
  69:Src/usart.c   ****     GPIO_InitStruct.Pull = GPIO_PULLUP;
 181              		.loc 1 69 5 is_stmt 1 view .LVU44
  69:Src/usart.c   ****     GPIO_InitStruct.Pull = GPIO_PULLUP;
 182              		.loc 1 69 26 is_stmt 0 view .LVU45
 183 0052 0223     		movs	r3, #2
 184 0054 0493     		str	r3, [sp, #16]
  70:Src/usart.c   ****     GPIO_InitStruct.Speed = GPIO_SPEED_FREQ_VERY_HIGH;
 185              		.loc 1 70 5 is_stmt 1 view .LVU46
  70:Src/usart.c   ****     GPIO_InitStruct.Speed = GPIO_SPEED_FREQ_VERY_HIGH;
 186              		.loc 1 70 26 is_stmt 0 view .LVU47
 187 0056 0123     		movs	r3, #1
 188 0058 0593     		str	r3, [sp, #20]
  71:Src/usart.c   ****     GPIO_InitStruct.Alternate = GPIO_AF7_USART3;
 189              		.loc 1 71 5 is_stmt 1 view .LVU48
  71:Src/usart.c   ****     GPIO_InitStruct.Alternate = GPIO_AF7_USART3;
 190              		.loc 1 71 27 is_stmt 0 view .LVU49
 191 005a 0323     		movs	r3, #3
 192 005c 0693     		str	r3, [sp, #24]
  72:Src/usart.c   ****     HAL_GPIO_Init(GPIOB, &GPIO_InitStruct);
 193              		.loc 1 72 5 is_stmt 1 view .LVU50
  72:Src/usart.c   ****     HAL_GPIO_Init(GPIOB, &GPIO_InitStruct);
 194              		.loc 1 72 31 is_stmt 0 view .LVU51
 195 005e 0723     		movs	r3, #7
 196 0060 0793     		str	r3, [sp, #28]
  73:Src/usart.c   **** 
 197              		.loc 1 73 5 is_stmt 1 view .LVU52
 198 0062 03A9     		add	r1, sp, #12
 199 0064 1C48     		ldr	r0, .L15+4
 200              	.LVL5:
  73:Src/usart.c   **** 
 201              		.loc 1 73 5 is_stmt 0 view .LVU53
 202 0066 FFF7FEFF 		bl	HAL_GPIO_Init
 203              	.LVL6:
  77:Src/usart.c   ****     hdma_usart3_rx.Init.Channel = DMA_CHANNEL_4;
 204              		.loc 1 77 5 is_stmt 1 view .LVU54
  77:Src/usart.c   ****     hdma_usart3_rx.Init.Channel = DMA_CHANNEL_4;
ARM GAS  C:\Users\ncer\AppData\Local\Temp\cchoyWsg.s 			page 7


 205              		.loc 1 77 29 is_stmt 0 view .LVU55
 206 006a 1C48     		ldr	r0, .L15+8
 207 006c 1C4B     		ldr	r3, .L15+12
 208 006e 0360     		str	r3, [r0]
  78:Src/usart.c   ****     hdma_usart3_rx.Init.Direction = DMA_PERIPH_TO_MEMORY;
 209              		.loc 1 78 5 is_stmt 1 view .LVU56
  78:Src/usart.c   ****     hdma_usart3_rx.Init.Direction = DMA_PERIPH_TO_MEMORY;
 210              		.loc 1 78 33 is_stmt 0 view .LVU57
 211 0070 4FF00063 		mov	r3, #134217728
 212 0074 4360     		str	r3, [r0, #4]
  79:Src/usart.c   ****     hdma_usart3_rx.Init.PeriphInc = DMA_PINC_DISABLE;
 213              		.loc 1 79 5 is_stmt 1 view .LVU58
  79:Src/usart.c   ****     hdma_usart3_rx.Init.PeriphInc = DMA_PINC_DISABLE;
 214              		.loc 1 79 35 is_stmt 0 view .LVU59
 215 0076 8560     		str	r5, [r0, #8]
  80:Src/usart.c   ****     hdma_usart3_rx.Init.MemInc = DMA_MINC_ENABLE;
 216              		.loc 1 80 5 is_stmt 1 view .LVU60
  80:Src/usart.c   ****     hdma_usart3_rx.Init.MemInc = DMA_MINC_ENABLE;
 217              		.loc 1 80 35 is_stmt 0 view .LVU61
 218 0078 C560     		str	r5, [r0, #12]
  81:Src/usart.c   ****     hdma_usart3_rx.Init.PeriphDataAlignment = DMA_PDATAALIGN_BYTE;
 219              		.loc 1 81 5 is_stmt 1 view .LVU62
  81:Src/usart.c   ****     hdma_usart3_rx.Init.PeriphDataAlignment = DMA_PDATAALIGN_BYTE;
 220              		.loc 1 81 32 is_stmt 0 view .LVU63
 221 007a 4FF48063 		mov	r3, #1024
 222 007e 0361     		str	r3, [r0, #16]
  82:Src/usart.c   ****     hdma_usart3_rx.Init.MemDataAlignment = DMA_MDATAALIGN_BYTE;
 223              		.loc 1 82 5 is_stmt 1 view .LVU64
  82:Src/usart.c   ****     hdma_usart3_rx.Init.MemDataAlignment = DMA_MDATAALIGN_BYTE;
 224              		.loc 1 82 45 is_stmt 0 view .LVU65
 225 0080 4561     		str	r5, [r0, #20]
  83:Src/usart.c   ****     hdma_usart3_rx.Init.Mode = DMA_NORMAL;
 226              		.loc 1 83 5 is_stmt 1 view .LVU66
  83:Src/usart.c   ****     hdma_usart3_rx.Init.Mode = DMA_NORMAL;
 227              		.loc 1 83 42 is_stmt 0 view .LVU67
 228 0082 8561     		str	r5, [r0, #24]
  84:Src/usart.c   ****     hdma_usart3_rx.Init.Priority = DMA_PRIORITY_LOW;
 229              		.loc 1 84 5 is_stmt 1 view .LVU68
  84:Src/usart.c   ****     hdma_usart3_rx.Init.Priority = DMA_PRIORITY_LOW;
 230              		.loc 1 84 30 is_stmt 0 view .LVU69
 231 0084 C561     		str	r5, [r0, #28]
  85:Src/usart.c   ****     hdma_usart3_rx.Init.FIFOMode = DMA_FIFOMODE_DISABLE;
 232              		.loc 1 85 5 is_stmt 1 view .LVU70
  85:Src/usart.c   ****     hdma_usart3_rx.Init.FIFOMode = DMA_FIFOMODE_DISABLE;
 233              		.loc 1 85 34 is_stmt 0 view .LVU71
 234 0086 0562     		str	r5, [r0, #32]
  86:Src/usart.c   ****     if (HAL_DMA_Init(&hdma_usart3_rx) != HAL_OK)
 235              		.loc 1 86 5 is_stmt 1 view .LVU72
  86:Src/usart.c   ****     if (HAL_DMA_Init(&hdma_usart3_rx) != HAL_OK)
 236              		.loc 1 86 34 is_stmt 0 view .LVU73
 237 0088 4562     		str	r5, [r0, #36]
  87:Src/usart.c   ****     {
 238              		.loc 1 87 5 is_stmt 1 view .LVU74
  87:Src/usart.c   ****     {
 239              		.loc 1 87 9 is_stmt 0 view .LVU75
 240 008a FFF7FEFF 		bl	HAL_DMA_Init
 241              	.LVL7:
ARM GAS  C:\Users\ncer\AppData\Local\Temp\cchoyWsg.s 			page 8


  87:Src/usart.c   ****     {
 242              		.loc 1 87 8 view .LVU76
 243 008e D8B9     		cbnz	r0, .L13
 244              	.L9:
  92:Src/usart.c   **** 
 245              		.loc 1 92 5 is_stmt 1 view .LVU77
  92:Src/usart.c   **** 
 246              		.loc 1 92 5 view .LVU78
 247 0090 124B     		ldr	r3, .L15+8
 248 0092 6363     		str	r3, [r4, #52]
  92:Src/usart.c   **** 
 249              		.loc 1 92 5 view .LVU79
 250 0094 9C63     		str	r4, [r3, #56]
  95:Src/usart.c   ****     hdma_usart3_tx.Init.Channel = DMA_CHANNEL_4;
 251              		.loc 1 95 5 view .LVU80
  95:Src/usart.c   ****     hdma_usart3_tx.Init.Channel = DMA_CHANNEL_4;
 252              		.loc 1 95 29 is_stmt 0 view .LVU81
 253 0096 1348     		ldr	r0, .L15+16
 254 0098 134B     		ldr	r3, .L15+20
 255 009a 0360     		str	r3, [r0]
  96:Src/usart.c   ****     hdma_usart3_tx.Init.Direction = DMA_MEMORY_TO_PERIPH;
 256              		.loc 1 96 5 is_stmt 1 view .LVU82
  96:Src/usart.c   ****     hdma_usart3_tx.Init.Direction = DMA_MEMORY_TO_PERIPH;
 257              		.loc 1 96 33 is_stmt 0 view .LVU83
 258 009c 4FF00063 		mov	r3, #134217728
 259 00a0 4360     		str	r3, [r0, #4]
  97:Src/usart.c   ****     hdma_usart3_tx.Init.PeriphInc = DMA_PINC_DISABLE;
 260              		.loc 1 97 5 is_stmt 1 view .LVU84
  97:Src/usart.c   ****     hdma_usart3_tx.Init.PeriphInc = DMA_PINC_DISABLE;
 261              		.loc 1 97 35 is_stmt 0 view .LVU85
 262 00a2 4023     		movs	r3, #64
 263 00a4 8360     		str	r3, [r0, #8]
  98:Src/usart.c   ****     hdma_usart3_tx.Init.MemInc = DMA_MINC_ENABLE;
 264              		.loc 1 98 5 is_stmt 1 view .LVU86
  98:Src/usart.c   ****     hdma_usart3_tx.Init.MemInc = DMA_MINC_ENABLE;
 265              		.loc 1 98 35 is_stmt 0 view .LVU87
 266 00a6 0023     		movs	r3, #0
 267 00a8 C360     		str	r3, [r0, #12]
  99:Src/usart.c   ****     hdma_usart3_tx.Init.PeriphDataAlignment = DMA_PDATAALIGN_BYTE;
 268              		.loc 1 99 5 is_stmt 1 view .LVU88
  99:Src/usart.c   ****     hdma_usart3_tx.Init.PeriphDataAlignment = DMA_PDATAALIGN_BYTE;
 269              		.loc 1 99 32 is_stmt 0 view .LVU89
 270 00aa 4FF48062 		mov	r2, #1024
 271 00ae 0261     		str	r2, [r0, #16]
 100:Src/usart.c   ****     hdma_usart3_tx.Init.MemDataAlignment = DMA_MDATAALIGN_BYTE;
 272              		.loc 1 100 5 is_stmt 1 view .LVU90
 100:Src/usart.c   ****     hdma_usart3_tx.Init.MemDataAlignment = DMA_MDATAALIGN_BYTE;
 273              		.loc 1 100 45 is_stmt 0 view .LVU91
 274 00b0 4361     		str	r3, [r0, #20]
 101:Src/usart.c   ****     hdma_usart3_tx.Init.Mode = DMA_NORMAL;
 275              		.loc 1 101 5 is_stmt 1 view .LVU92
 101:Src/usart.c   ****     hdma_usart3_tx.Init.Mode = DMA_NORMAL;
 276              		.loc 1 101 42 is_stmt 0 view .LVU93
 277 00b2 8361     		str	r3, [r0, #24]
 102:Src/usart.c   ****     hdma_usart3_tx.Init.Priority = DMA_PRIORITY_LOW;
 278              		.loc 1 102 5 is_stmt 1 view .LVU94
 102:Src/usart.c   ****     hdma_usart3_tx.Init.Priority = DMA_PRIORITY_LOW;
ARM GAS  C:\Users\ncer\AppData\Local\Temp\cchoyWsg.s 			page 9


 279              		.loc 1 102 30 is_stmt 0 view .LVU95
 280 00b4 C361     		str	r3, [r0, #28]
 103:Src/usart.c   ****     hdma_usart3_tx.Init.FIFOMode = DMA_FIFOMODE_DISABLE;
 281              		.loc 1 103 5 is_stmt 1 view .LVU96
 103:Src/usart.c   ****     hdma_usart3_tx.Init.FIFOMode = DMA_FIFOMODE_DISABLE;
 282              		.loc 1 103 34 is_stmt 0 view .LVU97
 283 00b6 0362     		str	r3, [r0, #32]
 104:Src/usart.c   ****     if (HAL_DMA_Init(&hdma_usart3_tx) != HAL_OK)
 284              		.loc 1 104 5 is_stmt 1 view .LVU98
 104:Src/usart.c   ****     if (HAL_DMA_Init(&hdma_usart3_tx) != HAL_OK)
 285              		.loc 1 104 34 is_stmt 0 view .LVU99
 286 00b8 4362     		str	r3, [r0, #36]
 105:Src/usart.c   ****     {
 287              		.loc 1 105 5 is_stmt 1 view .LVU100
 105:Src/usart.c   ****     {
 288              		.loc 1 105 9 is_stmt 0 view .LVU101
 289 00ba FFF7FEFF 		bl	HAL_DMA_Init
 290              	.LVL8:
 105:Src/usart.c   ****     {
 291              		.loc 1 105 8 view .LVU102
 292 00be 30B9     		cbnz	r0, .L14
 293              	.L10:
 110:Src/usart.c   **** 
 294              		.loc 1 110 5 is_stmt 1 view .LVU103
 110:Src/usart.c   **** 
 295              		.loc 1 110 5 view .LVU104
 296 00c0 084B     		ldr	r3, .L15+16
 297 00c2 2363     		str	r3, [r4, #48]
 110:Src/usart.c   **** 
 298              		.loc 1 110 5 view .LVU105
 299 00c4 9C63     		str	r4, [r3, #56]
 300              		.loc 1 116 1 is_stmt 0 view .LVU106
 301 00c6 A7E7     		b	.L7
 302              	.L13:
  89:Src/usart.c   ****     }
 303              		.loc 1 89 7 is_stmt 1 view .LVU107
 304 00c8 FFF7FEFF 		bl	Error_Handler
 305              	.LVL9:
 306 00cc E0E7     		b	.L9
 307              	.L14:
 107:Src/usart.c   ****     }
 308              		.loc 1 107 7 view .LVU108
 309 00ce FFF7FEFF 		bl	Error_Handler
 310              	.LVL10:
 311 00d2 F5E7     		b	.L10
 312              	.L16:
 313              		.align	2
 314              	.L15:
 315 00d4 00480040 		.word	1073760256
 316 00d8 00040240 		.word	1073873920
 317 00dc 00000000 		.word	hdma_usart3_rx
 318 00e0 28600240 		.word	1073897512
 319 00e4 00000000 		.word	hdma_usart3_tx
 320 00e8 58600240 		.word	1073897560
 321              		.cfi_endproc
 322              	.LFE131:
 324              		.section	.text.HAL_UART_MspDeInit,"ax",%progbits
ARM GAS  C:\Users\ncer\AppData\Local\Temp\cchoyWsg.s 			page 10


 325              		.align	1
 326              		.global	HAL_UART_MspDeInit
 327              		.syntax unified
 328              		.thumb
 329              		.thumb_func
 330              		.fpu fpv4-sp-d16
 332              	HAL_UART_MspDeInit:
 333              	.LVL11:
 334              	.LFB132:
 117:Src/usart.c   **** 
 118:Src/usart.c   **** void HAL_UART_MspDeInit(UART_HandleTypeDef* uartHandle)
 119:Src/usart.c   **** {
 335              		.loc 1 119 1 view -0
 336              		.cfi_startproc
 337              		@ args = 0, pretend = 0, frame = 0
 338              		@ frame_needed = 0, uses_anonymous_args = 0
 120:Src/usart.c   **** 
 121:Src/usart.c   ****   if(uartHandle->Instance==USART3)
 339              		.loc 1 121 3 view .LVU110
 340              		.loc 1 121 16 is_stmt 0 view .LVU111
 341 0000 0268     		ldr	r2, [r0]
 342              		.loc 1 121 5 view .LVU112
 343 0002 0B4B     		ldr	r3, .L24
 344 0004 9A42     		cmp	r2, r3
 345 0006 00D0     		beq	.L23
 346 0008 7047     		bx	lr
 347              	.L23:
 119:Src/usart.c   **** 
 348              		.loc 1 119 1 view .LVU113
 349 000a 10B5     		push	{r4, lr}
 350              	.LCFI5:
 351              		.cfi_def_cfa_offset 8
 352              		.cfi_offset 4, -8
 353              		.cfi_offset 14, -4
 354 000c 0446     		mov	r4, r0
 122:Src/usart.c   ****   {
 123:Src/usart.c   ****   /* USER CODE BEGIN USART3_MspDeInit 0 */
 124:Src/usart.c   **** 
 125:Src/usart.c   ****   /* USER CODE END USART3_MspDeInit 0 */
 126:Src/usart.c   ****     /* Peripheral clock disable */
 127:Src/usart.c   ****     __HAL_RCC_USART3_CLK_DISABLE();
 355              		.loc 1 127 5 is_stmt 1 view .LVU114
 356 000e 094A     		ldr	r2, .L24+4
 357 0010 136C     		ldr	r3, [r2, #64]
 358 0012 23F48023 		bic	r3, r3, #262144
 359 0016 1364     		str	r3, [r2, #64]
 128:Src/usart.c   ****   
 129:Src/usart.c   ****     /**USART3 GPIO Configuration    
 130:Src/usart.c   ****     PB10     ------> USART3_TX
 131:Src/usart.c   ****     PB11     ------> USART3_RX 
 132:Src/usart.c   ****     */
 133:Src/usart.c   ****     HAL_GPIO_DeInit(GPIOB, GPIO_PIN_10|GPIO_PIN_11);
 360              		.loc 1 133 5 view .LVU115
 361 0018 4FF44061 		mov	r1, #3072
 362 001c 0648     		ldr	r0, .L24+8
 363              	.LVL12:
 364              		.loc 1 133 5 is_stmt 0 view .LVU116
ARM GAS  C:\Users\ncer\AppData\Local\Temp\cchoyWsg.s 			page 11


 365 001e FFF7FEFF 		bl	HAL_GPIO_DeInit
 366              	.LVL13:
 134:Src/usart.c   **** 
 135:Src/usart.c   ****     /* USART3 DMA DeInit */
 136:Src/usart.c   ****     HAL_DMA_DeInit(uartHandle->hdmarx);
 367              		.loc 1 136 5 is_stmt 1 view .LVU117
 368 0022 606B     		ldr	r0, [r4, #52]
 369 0024 FFF7FEFF 		bl	HAL_DMA_DeInit
 370              	.LVL14:
 137:Src/usart.c   ****     HAL_DMA_DeInit(uartHandle->hdmatx);
 371              		.loc 1 137 5 view .LVU118
 372 0028 206B     		ldr	r0, [r4, #48]
 373 002a FFF7FEFF 		bl	HAL_DMA_DeInit
 374              	.LVL15:
 138:Src/usart.c   ****   /* USER CODE BEGIN USART3_MspDeInit 1 */
 139:Src/usart.c   **** 
 140:Src/usart.c   ****   /* USER CODE END USART3_MspDeInit 1 */
 141:Src/usart.c   ****   }
 142:Src/usart.c   **** } 
 375              		.loc 1 142 1 is_stmt 0 view .LVU119
 376 002e 10BD     		pop	{r4, pc}
 377              	.LVL16:
 378              	.L25:
 379              		.loc 1 142 1 view .LVU120
 380              		.align	2
 381              	.L24:
 382 0030 00480040 		.word	1073760256
 383 0034 00380240 		.word	1073887232
 384 0038 00040240 		.word	1073873920
 385              		.cfi_endproc
 386              	.LFE132:
 388              		.section	.text.send_wave,"ax",%progbits
 389              		.align	1
 390              		.global	send_wave
 391              		.syntax unified
 392              		.thumb
 393              		.thumb_func
 394              		.fpu fpv4-sp-d16
 396              	send_wave:
 397              	.LVL17:
 398              	.LFB133:
 143:Src/usart.c   **** 
 144:Src/usart.c   **** /* USER CODE BEGIN 1 */
 145:Src/usart.c   **** char s[22]={'b','y',16,6};
 146:Src/usart.c   **** void send_wave(float arg1,float arg2,float arg3,float arg4){
 399              		.loc 1 146 60 is_stmt 1 view -0
 400              		.cfi_startproc
 401              		@ args = 0, pretend = 0, frame = 0
 402              		@ frame_needed = 0, uses_anonymous_args = 0
 403              		.loc 1 146 60 is_stmt 0 view .LVU122
 404 0000 08B5     		push	{r3, lr}
 405              	.LCFI6:
 406              		.cfi_def_cfa_offset 8
 407              		.cfi_offset 3, -8
 408              		.cfi_offset 14, -4
 147:Src/usart.c   **** 
 148:Src/usart.c   ****   s[20]='\r';
ARM GAS  C:\Users\ncer\AppData\Local\Temp\cchoyWsg.s 			page 12


 409              		.loc 1 148 3 is_stmt 1 view .LVU123
 410              		.loc 1 148 8 is_stmt 0 view .LVU124
 411 0002 0949     		ldr	r1, .L28
 412 0004 0D23     		movs	r3, #13
 413 0006 0B75     		strb	r3, [r1, #20]
 149:Src/usart.c   ****   s[21]='\n';
 414              		.loc 1 149 3 is_stmt 1 view .LVU125
 415              		.loc 1 149 8 is_stmt 0 view .LVU126
 416 0008 0A23     		movs	r3, #10
 417 000a 4B75     		strb	r3, [r1, #21]
 150:Src/usart.c   ****   memcpy(s+4,&arg1,sizeof(arg1));
 418              		.loc 1 150 3 is_stmt 1 view .LVU127
 419 000c 81ED010A 		vstr.32	s0, [r1, #4]	@ int
 151:Src/usart.c   ****   memcpy(s+8,&arg2,sizeof(arg1));
 420              		.loc 1 151 3 view .LVU128
 421 0010 C1ED020A 		vstr.32	s1, [r1, #8]	@ int
 152:Src/usart.c   ****   memcpy(s+12,&arg3,sizeof(arg1));
 422              		.loc 1 152 3 view .LVU129
 423 0014 81ED031A 		vstr.32	s2, [r1, #12]	@ int
 153:Src/usart.c   ****   memcpy(s+16,&arg4,sizeof(arg1));
 424              		.loc 1 153 3 view .LVU130
 425 0018 C1ED041A 		vstr.32	s3, [r1, #16]	@ int
 154:Src/usart.c   ****   HAL_UART_Transmit(&huart3,(uint8_t *)s,sizeof(s),100);
 426              		.loc 1 154 3 view .LVU131
 427 001c 6423     		movs	r3, #100
 428 001e 1622     		movs	r2, #22
 429 0020 0248     		ldr	r0, .L28+4
 430 0022 FFF7FEFF 		bl	HAL_UART_Transmit
 431              	.LVL18:
 155:Src/usart.c   ****   //HAL_UART_Transmit_IT(&huart1,(uint8_t *)s,sizeof(s));
 156:Src/usart.c   **** }
 432              		.loc 1 156 1 is_stmt 0 view .LVU132
 433 0026 08BD     		pop	{r3, pc}
 434              	.L29:
 435              		.align	2
 436              	.L28:
 437 0028 00000000 		.word	.LANCHOR0
 438 002c 00000000 		.word	huart3
 439              		.cfi_endproc
 440              	.LFE133:
 442              		.global	s
 443              		.comm	hdma_usart3_tx,96,4
 444              		.comm	hdma_usart3_rx,96,4
 445              		.comm	huart3,64,4
 446              		.section	.data.s,"aw"
 447              		.align	2
 448              		.set	.LANCHOR0,. + 0
 451              	s:
 452 0000 62       		.byte	98
 453 0001 79       		.byte	121
 454 0002 10       		.byte	16
 455 0003 06       		.byte	6
 456 0004 00000000 		.space	18
 456      00000000 
 456      00000000 
 456      00000000 
 456      0000
ARM GAS  C:\Users\ncer\AppData\Local\Temp\cchoyWsg.s 			page 13


 457              		.text
 458              	.Letext0:
 459              		.file 2 "c:\\arm_gcc\\arm-none-eabi\\include\\machine\\_default_types.h"
 460              		.file 3 "c:\\arm_gcc\\arm-none-eabi\\include\\sys\\_stdint.h"
 461              		.file 4 "Drivers/CMSIS/Include/core_cm4.h"
 462              		.file 5 "Drivers/CMSIS/Device/ST/STM32F4xx/Include/system_stm32f4xx.h"
 463              		.file 6 "Drivers/CMSIS/Device/ST/STM32F4xx/Include/stm32f405xx.h"
 464              		.file 7 "Drivers/STM32F4xx_HAL_Driver/Inc/stm32f4xx_hal_def.h"
 465              		.file 8 "Drivers/STM32F4xx_HAL_Driver/Inc/stm32f4xx_hal_gpio.h"
 466              		.file 9 "Drivers/STM32F4xx_HAL_Driver/Inc/stm32f4xx_hal_dma.h"
 467              		.file 10 "Drivers/STM32F4xx_HAL_Driver/Inc/stm32f4xx_hal_uart.h"
 468              		.file 11 "Inc/usart.h"
 469              		.file 12 "c:\\arm_gcc\\lib\\gcc\\arm-none-eabi\\8.3.1\\include\\stddef.h"
 470              		.file 13 "c:\\arm_gcc\\arm-none-eabi\\include\\sys\\_types.h"
 471              		.file 14 "c:\\arm_gcc\\arm-none-eabi\\include\\sys\\reent.h"
 472              		.file 15 "c:\\arm_gcc\\arm-none-eabi\\include\\sys\\lock.h"
 473              		.file 16 "Inc/main.h"
ARM GAS  C:\Users\ncer\AppData\Local\Temp\cchoyWsg.s 			page 14

